	.cpu cortex-m4
	.eabi_attribute 27, 1
	.eabi_attribute 28, 1
	.eabi_attribute 20, 1
	.eabi_attribute 21, 1
	.eabi_attribute 23, 3
	.eabi_attribute 24, 1
	.eabi_attribute 25, 1
	.eabi_attribute 26, 1
	.eabi_attribute 30, 6
	.eabi_attribute 34, 1
	.eabi_attribute 18, 4
	.file	"bme680.c"
	.text
.Ltext0:
	.section	.text.bme680_init,"ax",%progbits
	.align	1
	.global	bme680_init
	.syntax unified
	.thumb
	.thumb_func
	.fpu fpv4-sp-d16
	.type	bme680_init, %function
bme680_init:
.LFB0:
	.file 1 "C:\\nordic\\nRF5_SDK_17.0.2_d674dde\\own_projects\\eigene\\twi_sensor2\\lib\\sensor\\snow_bme680\\bme680.c"
	.loc 1 279 1
	@ args = 0, pretend = 0, frame = 16
	@ frame_needed = 0, uses_anonymous_args = 0
	push	{lr}
.LCFI0:
	sub	sp, sp, #20
.LCFI1:
	str	r0, [sp, #4]
	.loc 1 283 9
	ldr	r0, [sp, #4]
	bl	null_ptr_check
	mov	r3, r0
	strb	r3, [sp, #15]
	.loc 1 284 5
	ldrsb	r3, [sp, #15]
	cmp	r3, #0
	bne	.L2
	.loc 1 286 10
	ldr	r0, [sp, #4]
	bl	bme680_soft_reset
	mov	r3, r0
	strb	r3, [sp, #15]
	.loc 1 287 6
	ldrsb	r3, [sp, #15]
	cmp	r3, #0
	bne	.L2
	.loc 1 288 11
	ldr	r1, [sp, #4]
	ldr	r3, [sp, #4]
	movs	r2, #1
	movs	r0, #208
	bl	bme680_get_regs
	mov	r3, r0
	strb	r3, [sp, #15]
	.loc 1 289 7
	ldrsb	r3, [sp, #15]
	cmp	r3, #0
	bne	.L2
	.loc 1 290 12
	ldr	r3, [sp, #4]
	ldrb	r3, [r3]	@ zero_extendqisi2
	.loc 1 290 8
	cmp	r3, #97
	bne	.L3
	.loc 1 292 13
	ldr	r0, [sp, #4]
	bl	get_calib_data
	mov	r3, r0
	strb	r3, [sp, #15]
	b	.L2
.L3:
	.loc 1 294 11
	movs	r3, #253
	strb	r3, [sp, #15]
.L2:
	.loc 1 300 9
	ldrsb	r3, [sp, #15]
	.loc 1 301 1
	mov	r0, r3
	add	sp, sp, #20
.LCFI2:
	@ sp needed
	ldr	pc, [sp], #4
.LFE0:
	.size	bme680_init, .-bme680_init
	.section	.text.bme680_get_regs,"ax",%progbits
	.align	1
	.global	bme680_get_regs
	.syntax unified
	.thumb
	.thumb_func
	.fpu fpv4-sp-d16
	.type	bme680_get_regs, %function
bme680_get_regs:
.LFB1:
	.loc 1 307 1
	@ args = 0, pretend = 0, frame = 24
	@ frame_needed = 0, uses_anonymous_args = 0
	push	{r4, lr}
.LCFI3:
	sub	sp, sp, #24
.LCFI4:
	str	r1, [sp, #8]
	str	r3, [sp, #4]
	mov	r3, r0
	strb	r3, [sp, #15]
	mov	r3, r2	@ movhi
	strh	r3, [sp, #12]	@ movhi
	.loc 1 311 9
	ldr	r0, [sp, #4]
	bl	null_ptr_check
	mov	r3, r0
	strb	r3, [sp, #23]
	.loc 1 312 5
	ldrsb	r3, [sp, #23]
	cmp	r3, #0
	bne	.L6
	.loc 1 313 10
	ldr	r3, [sp, #4]
	ldrb	r3, [r3, #2]	@ zero_extendqisi2
	.loc 1 313 6
	cmp	r3, #0
	bne	.L7
	.loc 1 315 11
	ldrb	r3, [sp, #15]	@ zero_extendqisi2
	ldr	r1, [sp, #4]
	mov	r0, r3
	bl	set_mem_page
	mov	r3, r0
	strb	r3, [sp, #23]
	.loc 1 316 7
	ldrsb	r3, [sp, #23]
	cmp	r3, #0
	bne	.L7
	.loc 1 317 14
	ldrb	r3, [sp, #15]
	orn	r3, r3, #127
	strb	r3, [sp, #15]
.L7:
	.loc 1 319 22
	ldr	r3, [sp, #4]
	ldr	r4, [r3, #72]
	.loc 1 319 19
	ldr	r3, [sp, #4]
	ldrb	r0, [r3, #1]	@ zero_extendqisi2
	ldrh	r3, [sp, #12]
	ldrb	r1, [sp, #15]	@ zero_extendqisi2
	ldr	r2, [sp, #8]
	blx	r4
.LVL0:
	mov	r3, r0
	mov	r2, r3
	.loc 1 319 17
	ldr	r3, [sp, #4]
	strb	r2, [r3, #84]
	.loc 1 320 10
	ldr	r3, [sp, #4]
	ldrsb	r3, [r3, #84]
	.loc 1 320 6
	cmp	r3, #0
	beq	.L6
	.loc 1 321 9
	movs	r3, #254
	strb	r3, [sp, #23]
.L6:
	.loc 1 324 9
	ldrsb	r3, [sp, #23]
	.loc 1 325 1
	mov	r0, r3
	add	sp, sp, #24
.LCFI5:
	@ sp needed
	pop	{r4, pc}
.LFE1:
	.size	bme680_get_regs, .-bme680_get_regs
	.section	.text.bme680_set_regs,"ax",%progbits
	.align	1
	.global	bme680_set_regs
	.syntax unified
	.thumb
	.thumb_func
	.fpu fpv4-sp-d16
	.type	bme680_set_regs, %function
bme680_set_regs:
.LFB2:
	.loc 1 332 1
	@ args = 0, pretend = 0, frame = 64
	@ frame_needed = 0, uses_anonymous_args = 0
	push	{r4, r5, lr}
.LCFI6:
	sub	sp, sp, #68
.LCFI7:
	str	r0, [sp, #12]
	str	r1, [sp, #8]
	str	r3, [sp]
	mov	r3, r2
	strb	r3, [sp, #7]
	.loc 1 335 10
	movs	r3, #0
	str	r3, [sp, #20]
	add	r3, sp, #24
	movs	r2, #36
	movs	r1, #0
	mov	r0, r3
	bl	memset
	.loc 1 339 9
	ldr	r0, [sp]
	bl	null_ptr_check
	mov	r3, r0
	strb	r3, [sp, #63]
	.loc 1 340 5
	ldrsb	r3, [sp, #63]
	cmp	r3, #0
	bne	.L10
	.loc 1 341 6
	ldrb	r3, [sp, #7]	@ zero_extendqisi2
	cmp	r3, #0
	beq	.L11
	.loc 1 341 17 discriminator 1
	ldrb	r3, [sp, #7]	@ zero_extendqisi2
	cmp	r3, #19
	bhi	.L11
	.loc 1 343 15
	movs	r3, #0
	strh	r3, [sp, #60]	@ movhi
	.loc 1 343 4
	b	.L12
.L15:
	.loc 1 344 12
	ldr	r3, [sp]
	ldrb	r3, [r3, #2]	@ zero_extendqisi2
	.loc 1 344 8
	cmp	r3, #0
	bne	.L13
	.loc 1 346 34
	ldrh	r3, [sp, #60]
	ldr	r2, [sp, #12]
	add	r3, r3, r2
	.loc 1 346 13
	ldrb	r3, [r3]	@ zero_extendqisi2
	ldr	r1, [sp]
	mov	r0, r3
	bl	set_mem_page
	mov	r3, r0
	strb	r3, [sp, #63]
	.loc 1 347 38
	ldrh	r3, [sp, #60]
	ldr	r2, [sp, #12]
	add	r3, r3, r2
	ldrb	r2, [r3]	@ zero_extendqisi2
	.loc 1 347 18
	ldrh	r3, [sp, #60]
	lsls	r3, r3, #1
	.loc 1 347 46
	and	r2, r2, #127
	uxtb	r2, r2
	.loc 1 347 28
	add	r1, sp, #64
	add	r3, r3, r1
	strb	r2, [r3, #-44]
	b	.L14
.L13:
	.loc 1 349 38
	ldrh	r3, [sp, #60]
	ldr	r2, [sp, #12]
	add	r2, r2, r3
	.loc 1 349 18
	ldrh	r3, [sp, #60]
	lsls	r3, r3, #1
	.loc 1 349 38
	ldrb	r2, [r2]	@ zero_extendqisi2
	.loc 1 349 28
	add	r1, sp, #64
	add	r3, r3, r1
	strb	r2, [r3, #-44]
.L14:
	.loc 1 351 41 discriminator 2
	ldrh	r3, [sp, #60]
	ldr	r2, [sp, #8]
	add	r2, r2, r3
	.loc 1 351 17 discriminator 2
	ldrh	r3, [sp, #60]
	lsls	r3, r3, #1
	.loc 1 351 26 discriminator 2
	adds	r3, r3, #1
	.loc 1 351 41 discriminator 2
	ldrb	r2, [r2]	@ zero_extendqisi2
	.loc 1 351 31 discriminator 2
	add	r1, sp, #64
	add	r3, r3, r1
	strb	r2, [r3, #-44]
	.loc 1 343 38 discriminator 2
	ldrh	r3, [sp, #60]
	adds	r3, r3, #1
	strh	r3, [sp, #60]	@ movhi
.L12:
	.loc 1 343 26 discriminator 1
	ldrb	r3, [sp, #7]	@ zero_extendqisi2
	uxth	r3, r3
	.loc 1 343 4 discriminator 1
	ldrh	r2, [sp, #60]
	cmp	r2, r3
	bcc	.L15
	.loc 1 354 7
	ldrsb	r3, [sp, #63]
	cmp	r3, #0
	bne	.L18
	.loc 1 355 24
	ldr	r3, [sp]
	ldr	r4, [r3, #76]
	.loc 1 355 21
	ldr	r3, [sp]
	ldrb	r0, [r3, #1]	@ zero_extendqisi2
	ldrb	r1, [sp, #20]	@ zero_extendqisi2
	ldrb	r3, [sp, #7]	@ zero_extendqisi2
	uxth	r3, r3
	lsls	r3, r3, #1
	uxth	r3, r3
	subs	r3, r3, #1
	uxth	r5, r3
	add	r3, sp, #20
	adds	r2, r3, #1
	mov	r3, r5
	blx	r4
.LVL1:
	mov	r3, r0
	mov	r2, r3
	.loc 1 355 19
	ldr	r3, [sp]
	strb	r2, [r3, #84]
	.loc 1 356 12
	ldr	r3, [sp]
	ldrsb	r3, [r3, #84]
	.loc 1 356 8
	cmp	r3, #0
	beq	.L18
	.loc 1 357 11
	movs	r3, #254
	strb	r3, [sp, #63]
	.loc 1 354 7
	b	.L18
.L11:
	.loc 1 360 9
	movs	r3, #252
	strb	r3, [sp, #63]
	b	.L10
.L18:
	.loc 1 354 7
	nop
.L10:
	.loc 1 364 9
	ldrsb	r3, [sp, #63]
	.loc 1 365 1
	mov	r0, r3
	add	sp, sp, #68
.LCFI8:
	@ sp needed
	pop	{r4, r5, pc}
.LFE2:
	.size	bme680_set_regs, .-bme680_set_regs
	.section	.text.bme680_soft_reset,"ax",%progbits
	.align	1
	.global	bme680_soft_reset
	.syntax unified
	.thumb
	.thumb_func
	.fpu fpv4-sp-d16
	.type	bme680_soft_reset, %function
bme680_soft_reset:
.LFB3:
	.loc 1 371 1
	@ args = 0, pretend = 0, frame = 16
	@ frame_needed = 0, uses_anonymous_args = 0
	push	{lr}
.LCFI9:
	sub	sp, sp, #20
.LCFI10:
	str	r0, [sp, #4]
	.loc 1 373 10
	movs	r3, #224
	strb	r3, [sp, #14]
	.loc 1 375 10
	movs	r3, #182
	strb	r3, [sp, #13]
	.loc 1 378 9
	ldr	r0, [sp, #4]
	bl	null_ptr_check
	mov	r3, r0
	strb	r3, [sp, #15]
	.loc 1 379 5
	ldrsb	r3, [sp, #15]
	cmp	r3, #0
	bne	.L20
	.loc 1 380 10
	ldr	r3, [sp, #4]
	ldrb	r3, [r3, #2]	@ zero_extendqisi2
	.loc 1 380 6
	cmp	r3, #0
	bne	.L21
	.loc 1 381 11
	ldr	r0, [sp, #4]
	bl	get_mem_page
	mov	r3, r0
	strb	r3, [sp, #15]
.L21:
	.loc 1 384 6
	ldrsb	r3, [sp, #15]
	cmp	r3, #0
	bne	.L20
	.loc 1 385 11
	add	r1, sp, #13
	add	r0, sp, #14
	ldr	r3, [sp, #4]
	movs	r2, #1
	bl	bme680_set_regs
	mov	r3, r0
	strb	r3, [sp, #15]
	.loc 1 387 7
	ldr	r3, [sp, #4]
	ldr	r3, [r3, #80]
	.loc 1 387 4
	movs	r0, #10
	blx	r3
.LVL2:
	.loc 1 389 7
	ldrsb	r3, [sp, #15]
	cmp	r3, #0
	bne	.L20
	.loc 1 391 12
	ldr	r3, [sp, #4]
	ldrb	r3, [r3, #2]	@ zero_extendqisi2
	.loc 1 391 8
	cmp	r3, #0
	bne	.L20
	.loc 1 392 13
	ldr	r0, [sp, #4]
	bl	get_mem_page
	mov	r3, r0
	strb	r3, [sp, #15]
.L20:
	.loc 1 397 9
	ldrsb	r3, [sp, #15]
	.loc 1 398 1
	mov	r0, r3
	add	sp, sp, #20
.LCFI11:
	@ sp needed
	ldr	pc, [sp], #4
.LFE3:
	.size	bme680_soft_reset, .-bme680_soft_reset
	.section	.text.bme680_set_sensor_settings,"ax",%progbits
	.align	1
	.global	bme680_set_sensor_settings
	.syntax unified
	.thumb
	.thumb_func
	.fpu fpv4-sp-d16
	.type	bme680_set_sensor_settings, %function
bme680_set_sensor_settings:
.LFB4:
	.loc 1 405 1
	@ args = 0, pretend = 0, frame = 32
	@ frame_needed = 0, uses_anonymous_args = 0
	push	{lr}
.LCFI12:
	sub	sp, sp, #36
.LCFI13:
	mov	r3, r0
	str	r1, [sp]
	strh	r3, [sp, #6]	@ movhi
	.loc 1 408 10
	movs	r3, #0
	strb	r3, [sp, #27]
	.loc 1 409 10
	movs	r3, #0
	strb	r3, [sp, #30]
	.loc 1 410 10
	movs	r3, #0
	str	r3, [sp, #20]
	movs	r3, #0
	strh	r3, [sp, #24]	@ movhi
	.loc 1 411 10
	movs	r3, #0
	str	r3, [sp, #12]
	movs	r3, #0
	strh	r3, [sp, #16]	@ movhi
	.loc 1 412 10
	ldr	r3, [sp]
	ldrb	r3, [r3, #68]
	strb	r3, [sp, #29]
	.loc 1 415 9
	ldr	r0, [sp]
	bl	null_ptr_check
	mov	r3, r0
	strb	r3, [sp, #31]
	.loc 1 416 5
	ldrsb	r3, [sp, #31]
	cmp	r3, #0
	bne	.L24
	.loc 1 417 24
	ldrh	r3, [sp, #6]
	and	r3, r3, #8
	.loc 1 417 6
	cmp	r3, #0
	beq	.L25
	.loc 1 418 11
	ldr	r0, [sp]
	bl	set_gas_config
	mov	r3, r0
	strb	r3, [sp, #31]
.L25:
	.loc 1 420 19
	ldr	r3, [sp]
	movs	r2, #0
	strb	r2, [r3, #68]
	.loc 1 421 6
	ldrsb	r3, [sp, #31]
	cmp	r3, #0
	bne	.L26
	.loc 1 422 11
	ldr	r0, [sp]
	bl	bme680_set_sensor_mode
	mov	r3, r0
	strb	r3, [sp, #31]
.L26:
	.loc 1 425 24
	ldrh	r3, [sp, #6]
	and	r3, r3, #16
	.loc 1 425 6
	cmp	r3, #0
	beq	.L27
	.loc 1 426 11
	ldr	r3, [sp]
	add	r0, r3, #59
	ldr	r3, [sp]
	movs	r2, #7
	movs	r1, #0
	bl	boundary_check
	mov	r3, r0
	strb	r3, [sp, #31]
	.loc 1 427 13
	movs	r3, #117
	strb	r3, [sp, #28]
	.loc 1 429 7
	ldrsb	r3, [sp, #31]
	cmp	r3, #0
	bne	.L28
	.loc 1 430 12
	add	r1, sp, #27
	ldrb	r0, [sp, #28]	@ zero_extendqisi2
	ldr	r3, [sp]
	movs	r2, #1
	bl	bme680_get_regs
	mov	r3, r0
	strb	r3, [sp, #31]
.L28:
	.loc 1 432 25
	ldrh	r3, [sp, #6]
	and	r3, r3, #16
	.loc 1 432 7
	cmp	r3, #0
	beq	.L29
	.loc 1 433 12
	ldrb	r3, [sp, #27]	@ zero_extendqisi2
	bic	r3, r3, #28
	uxtb	r2, r3
	ldr	r3, [sp]
	ldrb	r3, [r3, #59]	@ zero_extendqisi2
	lsls	r3, r3, #2
	uxtb	r3, r3
	and	r3, r3, #28
	uxtb	r3, r3
	orrs	r3, r3, r2
	uxtb	r3, r3
	.loc 1 433 10
	strb	r3, [sp, #27]
.L29:
	.loc 1 435 13
	ldrb	r3, [sp, #30]	@ zero_extendqisi2
	.loc 1 435 21
	add	r2, sp, #32
	add	r3, r3, r2
	ldrb	r2, [sp, #28]
	strb	r2, [r3, #-12]
	.loc 1 436 14
	ldrb	r3, [sp, #30]	@ zero_extendqisi2
	.loc 1 436 22
	ldrb	r2, [sp, #27]	@ zero_extendqisi2
	add	r1, sp, #32
	add	r3, r3, r1
	strb	r2, [r3, #-20]
	.loc 1 437 9
	ldrb	r3, [sp, #30]	@ zero_extendqisi2
	adds	r3, r3, #1
	strb	r3, [sp, #30]
.L27:
	.loc 1 441 24
	ldrh	r3, [sp, #6]
	and	r3, r3, #32
	.loc 1 441 6
	cmp	r3, #0
	beq	.L30
	.loc 1 442 11
	ldr	r3, [sp]
	add	r0, r3, #61
	ldr	r3, [sp]
	movs	r2, #8
	movs	r1, #0
	bl	boundary_check
	mov	r3, r0
	strb	r3, [sp, #31]
	.loc 1 444 13
	movs	r3, #112
	strb	r3, [sp, #28]
	.loc 1 446 7
	ldrsb	r3, [sp, #31]
	cmp	r3, #0
	bne	.L31
	.loc 1 447 12
	add	r1, sp, #27
	ldrb	r0, [sp, #28]	@ zero_extendqisi2
	ldr	r3, [sp]
	movs	r2, #1
	bl	bme680_get_regs
	mov	r3, r0
	strb	r3, [sp, #31]
.L31:
	.loc 1 448 11
	ldrb	r3, [sp, #27]	@ zero_extendqisi2
	bic	r3, r3, #8
	uxtb	r2, r3
	ldr	r3, [sp]
	ldrb	r3, [r3, #61]	@ zero_extendqisi2
	and	r3, r3, #8
	uxtb	r3, r3
	orrs	r3, r3, r2
	uxtb	r3, r3
	.loc 1 448 9
	strb	r3, [sp, #27]
	.loc 1 450 13
	ldrb	r3, [sp, #30]	@ zero_extendqisi2
	.loc 1 450 21
	add	r2, sp, #32
	add	r3, r3, r2
	ldrb	r2, [sp, #28]
	strb	r2, [r3, #-12]
	.loc 1 451 14
	ldrb	r3, [sp, #30]	@ zero_extendqisi2
	.loc 1 451 22
	ldrb	r2, [sp, #27]	@ zero_extendqisi2
	add	r1, sp, #32
	add	r3, r3, r1
	strb	r2, [r3, #-20]
	.loc 1 452 9
	ldrb	r3, [sp, #30]	@ zero_extendqisi2
	adds	r3, r3, #1
	strb	r3, [sp, #30]
.L30:
	.loc 1 456 24
	ldrh	r3, [sp, #6]
	and	r3, r3, #3
	.loc 1 456 6
	cmp	r3, #0
	beq	.L32
	.loc 1 457 11
	ldr	r3, [sp]
	add	r0, r3, #57
	ldr	r3, [sp]
	movs	r2, #5
	movs	r1, #0
	bl	boundary_check
	mov	r3, r0
	strb	r3, [sp, #31]
	.loc 1 458 13
	movs	r3, #116
	strb	r3, [sp, #28]
	.loc 1 460 7
	ldrsb	r3, [sp, #31]
	cmp	r3, #0
	bne	.L33
	.loc 1 461 12
	add	r1, sp, #27
	ldrb	r0, [sp, #28]	@ zero_extendqisi2
	ldr	r3, [sp]
	movs	r2, #1
	bl	bme680_get_regs
	mov	r3, r0
	strb	r3, [sp, #31]
.L33:
	.loc 1 463 25
	ldrh	r3, [sp, #6]
	and	r3, r3, #1
	.loc 1 463 7
	cmp	r3, #0
	beq	.L34
	.loc 1 464 12
	ldrb	r3, [sp, #27]	@ zero_extendqisi2
	and	r3, r3, #31
	uxtb	r2, r3
	ldr	r3, [sp]
	ldrb	r3, [r3, #57]	@ zero_extendqisi2
	lsls	r3, r3, #5
	uxtb	r3, r3
	orrs	r3, r3, r2
	uxtb	r3, r3
	.loc 1 464 10
	strb	r3, [sp, #27]
.L34:
	.loc 1 466 25
	ldrh	r3, [sp, #6]
	and	r3, r3, #2
	.loc 1 466 7
	cmp	r3, #0
	beq	.L35
	.loc 1 467 12
	ldrb	r3, [sp, #27]	@ zero_extendqisi2
	bic	r3, r3, #28
	uxtb	r2, r3
	ldr	r3, [sp]
	ldrb	r3, [r3, #58]	@ zero_extendqisi2
	lsls	r3, r3, #2
	uxtb	r3, r3
	and	r3, r3, #28
	uxtb	r3, r3
	orrs	r3, r3, r2
	uxtb	r3, r3
	.loc 1 467 10
	strb	r3, [sp, #27]
.L35:
	.loc 1 469 13
	ldrb	r3, [sp, #30]	@ zero_extendqisi2
	.loc 1 469 21
	add	r2, sp, #32
	add	r3, r3, r2
	ldrb	r2, [sp, #28]
	strb	r2, [r3, #-12]
	.loc 1 470 14
	ldrb	r3, [sp, #30]	@ zero_extendqisi2
	.loc 1 470 22
	ldrb	r2, [sp, #27]	@ zero_extendqisi2
	add	r1, sp, #32
	add	r3, r3, r1
	strb	r2, [r3, #-20]
	.loc 1 471 9
	ldrb	r3, [sp, #30]	@ zero_extendqisi2
	adds	r3, r3, #1
	strb	r3, [sp, #30]
.L32:
	.loc 1 475 24
	ldrh	r3, [sp, #6]
	and	r3, r3, #4
	.loc 1 475 6
	cmp	r3, #0
	beq	.L36
	.loc 1 476 11
	ldr	r3, [sp]
	add	r0, r3, #56
	ldr	r3, [sp]
	movs	r2, #5
	movs	r1, #0
	bl	boundary_check
	mov	r3, r0
	strb	r3, [sp, #31]
	.loc 1 477 13
	movs	r3, #114
	strb	r3, [sp, #28]
	.loc 1 479 7
	ldrsb	r3, [sp, #31]
	cmp	r3, #0
	bne	.L37
	.loc 1 480 12
	add	r1, sp, #27
	ldrb	r0, [sp, #28]	@ zero_extendqisi2
	ldr	r3, [sp]
	movs	r2, #1
	bl	bme680_get_regs
	mov	r3, r0
	strb	r3, [sp, #31]
.L37:
	.loc 1 481 11
	ldrb	r3, [sp, #27]	@ zero_extendqisi2
	bic	r3, r3, #7
	uxtb	r2, r3
	ldr	r3, [sp]
	ldrb	r3, [r3, #56]	@ zero_extendqisi2
	and	r3, r3, #7
	uxtb	r3, r3
	orrs	r3, r3, r2
	uxtb	r3, r3
	.loc 1 481 9
	strb	r3, [sp, #27]
	.loc 1 483 13
	ldrb	r3, [sp, #30]	@ zero_extendqisi2
	.loc 1 483 21
	add	r2, sp, #32
	add	r3, r3, r2
	ldrb	r2, [sp, #28]
	strb	r2, [r3, #-12]
	.loc 1 484 14
	ldrb	r3, [sp, #30]	@ zero_extendqisi2
	.loc 1 484 22
	ldrb	r2, [sp, #27]	@ zero_extendqisi2
	add	r1, sp, #32
	add	r3, r3, r1
	strb	r2, [r3, #-20]
	.loc 1 485 9
	ldrb	r3, [sp, #30]	@ zero_extendqisi2
	adds	r3, r3, #1
	strb	r3, [sp, #30]
.L36:
	.loc 1 489 24
	ldrh	r3, [sp, #6]
	and	r3, r3, #192
	.loc 1 489 6
	cmp	r3, #0
	beq	.L38
	.loc 1 490 11
	ldr	r3, [sp]
	add	r0, r3, #62
	ldr	r3, [sp]
	movs	r2, #1
	movs	r1, #0
	bl	boundary_check
	mov	r3, r0
	strb	r3, [sp, #31]
	.loc 1 492 7
	ldrsb	r3, [sp, #31]
	cmp	r3, #0
	bne	.L39
	.loc 1 494 12
	ldr	r3, [sp]
	add	r0, r3, #60
	ldr	r3, [sp]
	movs	r2, #10
	movs	r1, #0
	bl	boundary_check
	mov	r3, r0
	strb	r3, [sp, #31]
.L39:
	.loc 1 498 13
	movs	r3, #113
	strb	r3, [sp, #28]
	.loc 1 500 7
	ldrsb	r3, [sp, #31]
	cmp	r3, #0
	bne	.L40
	.loc 1 501 12
	add	r1, sp, #27
	ldrb	r0, [sp, #28]	@ zero_extendqisi2
	ldr	r3, [sp]
	movs	r2, #1
	bl	bme680_get_regs
	mov	r3, r0
	strb	r3, [sp, #31]
.L40:
	.loc 1 503 25
	ldrh	r3, [sp, #6]
	and	r3, r3, #64
	.loc 1 503 7
	cmp	r3, #0
	beq	.L41
	.loc 1 504 12
	ldrb	r3, [sp, #27]	@ zero_extendqisi2
	bic	r3, r3, #16
	uxtb	r2, r3
	ldr	r3, [sp]
	ldrb	r3, [r3, #62]	@ zero_extendqisi2
	lsls	r3, r3, #4
	uxtb	r3, r3
	and	r3, r3, #16
	uxtb	r3, r3
	orrs	r3, r3, r2
	uxtb	r3, r3
	.loc 1 504 10
	strb	r3, [sp, #27]
.L41:
	.loc 1 506 25
	ldrh	r3, [sp, #6]
	and	r3, r3, #128
	.loc 1 506 7
	cmp	r3, #0
	beq	.L42
	.loc 1 507 12
	ldrb	r3, [sp, #27]	@ zero_extendqisi2
	bic	r3, r3, #15
	uxtb	r2, r3
	ldr	r3, [sp]
	ldrb	r3, [r3, #60]	@ zero_extendqisi2
	and	r3, r3, #15
	uxtb	r3, r3
	orrs	r3, r3, r2
	uxtb	r3, r3
	.loc 1 507 10
	strb	r3, [sp, #27]
.L42:
	.loc 1 509 13
	ldrb	r3, [sp, #30]	@ zero_extendqisi2
	.loc 1 509 21
	add	r2, sp, #32
	add	r3, r3, r2
	ldrb	r2, [sp, #28]
	strb	r2, [r3, #-12]
	.loc 1 510 14
	ldrb	r3, [sp, #30]	@ zero_extendqisi2
	.loc 1 510 22
	ldrb	r2, [sp, #27]	@ zero_extendqisi2
	add	r1, sp, #32
	add	r3, r3, r1
	strb	r2, [r3, #-20]
	.loc 1 511 9
	ldrb	r3, [sp, #30]	@ zero_extendqisi2
	adds	r3, r3, #1
	strb	r3, [sp, #30]
.L38:
	.loc 1 514 6
	ldrsb	r3, [sp, #31]
	cmp	r3, #0
	bne	.L43
	.loc 1 515 11
	ldrb	r2, [sp, #30]	@ zero_extendqisi2
	add	r1, sp, #12
	add	r0, sp, #20
	ldr	r3, [sp]
	bl	bme680_set_regs
	mov	r3, r0
	strb	r3, [sp, #31]
.L43:
	.loc 1 518 19
	ldr	r3, [sp]
	ldrb	r2, [sp, #29]
	strb	r2, [r3, #68]
.L24:
	.loc 1 521 9
	ldrsb	r3, [sp, #31]
	.loc 1 522 1
	mov	r0, r3
	add	sp, sp, #36
.LCFI14:
	@ sp needed
	ldr	pc, [sp], #4
.LFE4:
	.size	bme680_set_sensor_settings, .-bme680_set_sensor_settings
	.section	.text.bme680_get_sensor_settings,"ax",%progbits
	.align	1
	.global	bme680_get_sensor_settings
	.syntax unified
	.thumb
	.thumb_func
	.fpu fpv4-sp-d16
	.type	bme680_get_sensor_settings, %function
bme680_get_sensor_settings:
.LFB5:
	.loc 1 529 1
	@ args = 0, pretend = 0, frame = 16
	@ frame_needed = 0, uses_anonymous_args = 0
	push	{lr}
.LCFI15:
	sub	sp, sp, #20
.LCFI16:
	mov	r3, r0
	str	r1, [sp]
	strh	r3, [sp, #6]	@ movhi
	.loc 1 532 10
	movs	r3, #112
	strb	r3, [sp, #14]
	.loc 1 533 10
	movs	r3, #0
	str	r3, [sp, #8]
	movs	r3, #0
	strh	r3, [sp, #12]	@ movhi
	.loc 1 536 9
	ldr	r0, [sp]
	bl	null_ptr_check
	mov	r3, r0
	strb	r3, [sp, #15]
	.loc 1 537 5
	ldrsb	r3, [sp, #15]
	cmp	r3, #0
	bne	.L46
	.loc 1 538 10
	add	r1, sp, #8
	ldrb	r0, [sp, #14]	@ zero_extendqisi2
	ldr	r3, [sp]
	movs	r2, #6
	bl	bme680_get_regs
	mov	r3, r0
	strb	r3, [sp, #15]
	.loc 1 540 6
	ldrsb	r3, [sp, #15]
	cmp	r3, #0
	bne	.L47
	.loc 1 541 25
	ldrh	r3, [sp, #6]
	and	r3, r3, #8
	.loc 1 541 7
	cmp	r3, #0
	beq	.L48
	.loc 1 542 12
	ldr	r0, [sp]
	bl	get_gas_config
	mov	r3, r0
	strb	r3, [sp, #15]
.L48:
	.loc 1 545 25
	ldrh	r3, [sp, #6]
	and	r3, r3, #16
	.loc 1 545 7
	cmp	r3, #0
	beq	.L49
	.loc 1 546 28
	ldrb	r3, [sp, #13]	@ zero_extendqisi2
	lsrs	r3, r3, #2
	uxtb	r3, r3
	and	r3, r3, #7
	uxtb	r2, r3
	.loc 1 546 26
	ldr	r3, [sp]
	strb	r2, [r3, #59]
.L49:
	.loc 1 549 25
	ldrh	r3, [sp, #6]
	and	r3, r3, #3
	.loc 1 549 7
	cmp	r3, #0
	beq	.L50
	.loc 1 550 29
	ldrb	r3, [sp, #12]	@ zero_extendqisi2
	lsrs	r3, r3, #5
	uxtb	r2, r3
	.loc 1 550 27
	ldr	r3, [sp]
	strb	r2, [r3, #57]
	.loc 1 551 29
	ldrb	r3, [sp, #12]	@ zero_extendqisi2
	lsrs	r3, r3, #2
	uxtb	r3, r3
	and	r3, r3, #7
	uxtb	r2, r3
	.loc 1 551 27
	ldr	r3, [sp]
	strb	r2, [r3, #58]
.L50:
	.loc 1 554 25
	ldrh	r3, [sp, #6]
	and	r3, r3, #4
	.loc 1 554 7
	cmp	r3, #0
	beq	.L51
	.loc 1 555 28
	ldrb	r3, [sp, #10]	@ zero_extendqisi2
	and	r3, r3, #7
	uxtb	r2, r3
	.loc 1 555 26
	ldr	r3, [sp]
	strb	r2, [r3, #56]
.L51:
	.loc 1 559 25
	ldrh	r3, [sp, #6]
	and	r3, r3, #32
	.loc 1 559 7
	cmp	r3, #0
	beq	.L52
	.loc 1 560 32
	ldrb	r3, [sp, #8]	@ zero_extendqisi2
	and	r3, r3, #8
	uxtb	r2, r3
	.loc 1 560 30
	ldr	r3, [sp]
	strb	r2, [r3, #61]
.L52:
	.loc 1 563 25
	ldrh	r3, [sp, #6]
	and	r3, r3, #192
	.loc 1 563 7
	cmp	r3, #0
	beq	.L47
	.loc 1 564 29
	ldrb	r3, [sp, #9]	@ zero_extendqisi2
	and	r3, r3, #15
	uxtb	r2, r3
	.loc 1 564 27
	ldr	r3, [sp]
	strb	r2, [r3, #60]
	.loc 1 566 29
	ldrb	r3, [sp, #9]	@ zero_extendqisi2
	lsrs	r3, r3, #4
	uxtb	r3, r3
	and	r3, r3, #1
	uxtb	r2, r3
	.loc 1 566 27
	ldr	r3, [sp]
	strb	r2, [r3, #62]
	b	.L47
.L46:
	.loc 1 571 8
	movs	r3, #255
	strb	r3, [sp, #15]
.L47:
	.loc 1 574 9
	ldrsb	r3, [sp, #15]
	.loc 1 575 1
	mov	r0, r3
	add	sp, sp, #20
.LCFI17:
	@ sp needed
	ldr	pc, [sp], #4
.LFE5:
	.size	bme680_get_sensor_settings, .-bme680_get_sensor_settings
	.section	.text.bme680_set_sensor_mode,"ax",%progbits
	.align	1
	.global	bme680_set_sensor_mode
	.syntax unified
	.thumb
	.thumb_func
	.fpu fpv4-sp-d16
	.type	bme680_set_sensor_mode, %function
bme680_set_sensor_mode:
.LFB6:
	.loc 1 581 1
	@ args = 0, pretend = 0, frame = 16
	@ frame_needed = 0, uses_anonymous_args = 0
	push	{lr}
.LCFI18:
	sub	sp, sp, #20
.LCFI19:
	str	r0, [sp, #4]
	.loc 1 584 10
	movs	r3, #0
	strb	r3, [sp, #14]
	.loc 1 585 10
	movs	r3, #116
	strb	r3, [sp, #12]
	.loc 1 588 9
	ldr	r0, [sp, #4]
	bl	null_ptr_check
	mov	r3, r0
	strb	r3, [sp, #15]
	.loc 1 589 5
	ldrsb	r3, [sp, #15]
	cmp	r3, #0
	bne	.L55
.L57:
	.loc 1 592 11
	add	r1, sp, #13
	ldr	r3, [sp, #4]
	movs	r2, #1
	movs	r0, #116
	bl	bme680_get_regs
	mov	r3, r0
	strb	r3, [sp, #15]
	.loc 1 593 7
	ldrsb	r3, [sp, #15]
	cmp	r3, #0
	bne	.L56
	.loc 1 595 30
	ldrb	r3, [sp, #13]	@ zero_extendqisi2
	.loc 1 595 14
	and	r3, r3, #3
	strb	r3, [sp, #14]
	.loc 1 597 8
	ldrb	r3, [sp, #14]	@ zero_extendqisi2
	cmp	r3, #0
	beq	.L56
	.loc 1 598 34
	ldrb	r3, [sp, #13]	@ zero_extendqisi2
	bic	r3, r3, #3
	uxtb	r3, r3
	.loc 1 598 19
	strb	r3, [sp, #13]
	.loc 1 599 13
	add	r1, sp, #13
	add	r0, sp, #12
	ldr	r3, [sp, #4]
	movs	r2, #1
	bl	bme680_set_regs
	mov	r3, r0
	strb	r3, [sp, #15]
	.loc 1 600 9
	ldr	r3, [sp, #4]
	ldr	r3, [r3, #80]
	.loc 1 600 6
	movs	r0, #10
	blx	r3
.LVL3:
.L56:
	.loc 1 603 3
	ldrb	r3, [sp, #14]	@ zero_extendqisi2
	cmp	r3, #0
	bne	.L57
	.loc 1 606 10
	ldr	r3, [sp, #4]
	ldrb	r3, [r3, #68]	@ zero_extendqisi2
	.loc 1 606 6
	cmp	r3, #0
	beq	.L55
	.loc 1 607 33
	ldrb	r3, [sp, #13]	@ zero_extendqisi2
	bic	r3, r3, #3
	uxtb	r2, r3
	.loc 1 607 59
	ldr	r3, [sp, #4]
	ldrb	r3, [r3, #68]	@ zero_extendqisi2
	.loc 1 607 72
	and	r3, r3, #3
	uxtb	r3, r3
	.loc 1 607 53
	orrs	r3, r3, r2
	uxtb	r3, r3
	.loc 1 607 17
	strb	r3, [sp, #13]
	.loc 1 608 7
	ldrsb	r3, [sp, #15]
	cmp	r3, #0
	bne	.L55
	.loc 1 609 12
	add	r1, sp, #13
	add	r0, sp, #12
	ldr	r3, [sp, #4]
	movs	r2, #1
	bl	bme680_set_regs
	mov	r3, r0
	strb	r3, [sp, #15]
.L55:
	.loc 1 613 9
	ldrsb	r3, [sp, #15]
	.loc 1 614 1
	mov	r0, r3
	add	sp, sp, #20
.LCFI20:
	@ sp needed
	ldr	pc, [sp], #4
.LFE6:
	.size	bme680_set_sensor_mode, .-bme680_set_sensor_mode
	.section	.text.bme680_get_sensor_mode,"ax",%progbits
	.align	1
	.global	bme680_get_sensor_mode
	.syntax unified
	.thumb
	.thumb_func
	.fpu fpv4-sp-d16
	.type	bme680_get_sensor_mode, %function
bme680_get_sensor_mode:
.LFB7:
	.loc 1 620 1
	@ args = 0, pretend = 0, frame = 16
	@ frame_needed = 0, uses_anonymous_args = 0
	push	{lr}
.LCFI21:
	sub	sp, sp, #20
.LCFI22:
	str	r0, [sp, #4]
	.loc 1 625 9
	ldr	r0, [sp, #4]
	bl	null_ptr_check
	mov	r3, r0
	strb	r3, [sp, #15]
	.loc 1 626 5
	ldrsb	r3, [sp, #15]
	cmp	r3, #0
	bne	.L60
	.loc 1 627 10
	add	r1, sp, #14
	ldr	r3, [sp, #4]
	movs	r2, #1
	movs	r0, #116
	bl	bme680_get_regs
	mov	r3, r0
	strb	r3, [sp, #15]
	.loc 1 629 26
	ldrb	r3, [sp, #14]	@ zero_extendqisi2
	and	r3, r3, #3
	uxtb	r2, r3
	.loc 1 629 19
	ldr	r3, [sp, #4]
	strb	r2, [r3, #68]
.L60:
	.loc 1 632 9
	ldrsb	r3, [sp, #15]
	.loc 1 633 1
	mov	r0, r3
	add	sp, sp, #20
.LCFI23:
	@ sp needed
	ldr	pc, [sp], #4
.LFE7:
	.size	bme680_get_sensor_mode, .-bme680_get_sensor_mode
	.section .rodata
	.align	2
.LC2:
	.ascii	"\000\001\002\004\010\020"
	.section	.text.bme680_set_profile_dur,"ax",%progbits
	.align	1
	.global	bme680_set_profile_dur
	.syntax unified
	.thumb
	.thumb_func
	.fpu fpv4-sp-d16
	.type	bme680_set_profile_dur, %function
bme680_set_profile_dur:
.LFB8:
	.loc 1 639 1
	@ args = 0, pretend = 0, frame = 24
	@ frame_needed = 0, uses_anonymous_args = 0
	@ link register save eliminated.
	sub	sp, sp, #24
.LCFI24:
	mov	r3, r0
	str	r1, [sp]
	strh	r3, [sp, #6]	@ movhi
	.loc 1 642 10
	ldr	r2, .L63
	add	r3, sp, #8
	ldm	r2, {r0, r1}
	str	r0, [r3]
	adds	r3, r3, #4
	strh	r1, [r3]	@ movhi
	.loc 1 644 47
	ldr	r3, [sp]
	ldrb	r3, [r3, #57]	@ zero_extendqisi2
	.loc 1 644 33
	add	r2, sp, #24
	add	r3, r3, r2
	ldrb	r3, [r3, #-16]	@ zero_extendqisi2
	.loc 1 644 14
	str	r3, [sp, #20]
	.loc 1 645 48
	ldr	r3, [sp]
	ldrb	r3, [r3, #58]	@ zero_extendqisi2
	.loc 1 645 34
	add	r2, sp, #24
	add	r3, r3, r2
	ldrb	r3, [r3, #-16]	@ zero_extendqisi2
	mov	r2, r3
	.loc 1 645 14
	ldr	r3, [sp, #20]
	add	r3, r3, r2
	str	r3, [sp, #20]
	.loc 1 646 48
	ldr	r3, [sp]
	ldrb	r3, [r3, #56]	@ zero_extendqisi2
	.loc 1 646 34
	add	r2, sp, #24
	add	r3, r3, r2
	ldrb	r3, [r3, #-16]	@ zero_extendqisi2
	mov	r2, r3
	.loc 1 646 14
	ldr	r3, [sp, #20]
	add	r3, r3, r2
	str	r3, [sp, #20]
	.loc 1 649 10
	ldr	r3, [sp, #20]
	movw	r2, #1963
	mul	r3, r2, r3
	str	r3, [sp, #16]
	.loc 1 650 10
	ldr	r3, [sp, #16]
	addw	r3, r3, #1908
	str	r3, [sp, #16]
	.loc 1 651 10
	ldr	r3, [sp, #16]
	addw	r3, r3, #2385
	str	r3, [sp, #16]
	.loc 1 652 10
	ldr	r3, [sp, #16]
	add	r3, r3, #500
	str	r3, [sp, #16]
	.loc 1 653 10
	ldr	r3, [sp, #16]
	ldr	r2, .L63+4
	umull	r2, r3, r2, r3
	lsrs	r3, r3, #6
	str	r3, [sp, #16]
	.loc 1 655 10
	ldr	r3, [sp, #16]
	adds	r3, r3, #1
	str	r3, [sp, #16]
	.loc 1 657 39
	ldr	r3, [sp, #16]
	uxth	r3, r3
	.loc 1 657 37
	ldrh	r2, [sp, #6]	@ movhi
	subs	r3, r2, r3
	uxth	r2, r3
	.loc 1 657 26
	ldr	r3, [sp]
	strh	r2, [r3, #66]	@ movhi
	.loc 1 658 1
	nop
	add	sp, sp, #24
.LCFI25:
	@ sp needed
	bx	lr
.L64:
	.align	2
.L63:
	.word	.LC2
	.word	274877907
.LFE8:
	.size	bme680_set_profile_dur, .-bme680_set_profile_dur
	.section	.text.bme680_get_profile_dur,"ax",%progbits
	.align	1
	.global	bme680_get_profile_dur
	.syntax unified
	.thumb
	.thumb_func
	.fpu fpv4-sp-d16
	.type	bme680_get_profile_dur, %function
bme680_get_profile_dur:
.LFB9:
	.loc 1 664 1
	@ args = 0, pretend = 0, frame = 24
	@ frame_needed = 0, uses_anonymous_args = 0
	@ link register save eliminated.
	sub	sp, sp, #24
.LCFI26:
	str	r0, [sp, #4]
	str	r1, [sp]
	.loc 1 667 10
	ldr	r2, .L68
	add	r3, sp, #8
	ldm	r2, {r0, r1}
	str	r0, [r3]
	adds	r3, r3, #4
	strh	r1, [r3]	@ movhi
	.loc 1 669 47
	ldr	r3, [sp]
	ldrb	r3, [r3, #57]	@ zero_extendqisi2
	.loc 1 669 33
	add	r2, sp, #24
	add	r3, r3, r2
	ldrb	r3, [r3, #-16]	@ zero_extendqisi2
	.loc 1 669 14
	str	r3, [sp, #20]
	.loc 1 670 48
	ldr	r3, [sp]
	ldrb	r3, [r3, #58]	@ zero_extendqisi2
	.loc 1 670 34
	add	r2, sp, #24
	add	r3, r3, r2
	ldrb	r3, [r3, #-16]	@ zero_extendqisi2
	mov	r2, r3
	.loc 1 670 14
	ldr	r3, [sp, #20]
	add	r3, r3, r2
	str	r3, [sp, #20]
	.loc 1 671 48
	ldr	r3, [sp]
	ldrb	r3, [r3, #56]	@ zero_extendqisi2
	.loc 1 671 34
	add	r2, sp, #24
	add	r3, r3, r2
	ldrb	r3, [r3, #-16]	@ zero_extendqisi2
	mov	r2, r3
	.loc 1 671 14
	ldr	r3, [sp, #20]
	add	r3, r3, r2
	str	r3, [sp, #20]
	.loc 1 674 10
	ldr	r3, [sp, #20]
	movw	r2, #1963
	mul	r3, r2, r3
	str	r3, [sp, #16]
	.loc 1 675 10
	ldr	r3, [sp, #16]
	addw	r3, r3, #1908
	str	r3, [sp, #16]
	.loc 1 676 10
	ldr	r3, [sp, #16]
	addw	r3, r3, #2385
	str	r3, [sp, #16]
	.loc 1 677 10
	ldr	r3, [sp, #16]
	add	r3, r3, #500
	str	r3, [sp, #16]
	.loc 1 678 10
	ldr	r3, [sp, #16]
	ldr	r2, .L68+4
	umull	r2, r3, r2, r3
	lsrs	r3, r3, #6
	str	r3, [sp, #16]
	.loc 1 680 10
	ldr	r3, [sp, #16]
	adds	r3, r3, #1
	str	r3, [sp, #16]
	.loc 1 682 14
	ldr	r3, [sp, #16]
	uxth	r2, r3
	.loc 1 682 12
	ldr	r3, [sp, #4]
	strh	r2, [r3]	@ movhi
	.loc 1 685 19
	ldr	r3, [sp]
	ldrb	r3, [r3, #62]	@ zero_extendqisi2
	.loc 1 685 5
	cmp	r3, #0
	beq	.L67
	.loc 1 687 13
	ldr	r3, [sp, #4]
	ldrh	r2, [r3]
	.loc 1 687 29
	ldr	r3, [sp]
	ldrh	r3, [r3, #66]
	.loc 1 687 13
	add	r3, r3, r2
	uxth	r2, r3
	ldr	r3, [sp, #4]
	strh	r2, [r3]	@ movhi
.L67:
	.loc 1 689 1
	nop
	add	sp, sp, #24
.LCFI27:
	@ sp needed
	bx	lr
.L69:
	.align	2
.L68:
	.word	.LC2
	.word	274877907
.LFE9:
	.size	bme680_get_profile_dur, .-bme680_get_profile_dur
	.section	.text.bme680_get_sensor_data,"ax",%progbits
	.align	1
	.global	bme680_get_sensor_data
	.syntax unified
	.thumb
	.thumb_func
	.fpu fpv4-sp-d16
	.type	bme680_get_sensor_data, %function
bme680_get_sensor_data:
.LFB10:
	.loc 1 697 1
	@ args = 0, pretend = 0, frame = 16
	@ frame_needed = 0, uses_anonymous_args = 0
	push	{lr}
.LCFI28:
	sub	sp, sp, #20
.LCFI29:
	str	r0, [sp, #4]
	str	r1, [sp]
	.loc 1 701 9
	ldr	r0, [sp]
	bl	null_ptr_check
	mov	r3, r0
	strb	r3, [sp, #15]
	.loc 1 702 5
	ldrsb	r3, [sp, #15]
	cmp	r3, #0
	bne	.L71
	.loc 1 704 10
	ldr	r1, [sp]
	ldr	r0, [sp, #4]
	bl	read_field_data
	mov	r3, r0
	strb	r3, [sp, #15]
	.loc 1 705 6
	ldrsb	r3, [sp, #15]
	cmp	r3, #0
	bne	.L71
	.loc 1 706 12
	ldr	r3, [sp, #4]
	ldrb	r3, [r3]	@ zero_extendqisi2
	.loc 1 706 8
	sxtb	r3, r3
	.loc 1 706 7
	cmp	r3, #0
	bge	.L72
	.loc 1 707 21
	ldr	r3, [sp]
	movs	r2, #1
	strb	r2, [r3, #69]
	b	.L71
.L72:
	.loc 1 709 21
	ldr	r3, [sp]
	movs	r2, #0
	strb	r2, [r3, #69]
.L71:
	.loc 1 713 9
	ldrsb	r3, [sp, #15]
	.loc 1 714 1
	mov	r0, r3
	add	sp, sp, #20
.LCFI30:
	@ sp needed
	ldr	pc, [sp], #4
.LFE10:
	.size	bme680_get_sensor_data, .-bme680_get_sensor_data
	.section	.text.get_calib_data,"ax",%progbits
	.align	1
	.syntax unified
	.thumb
	.thumb_func
	.fpu fpv4-sp-d16
	.type	get_calib_data, %function
get_calib_data:
.LFB11:
	.loc 1 720 1
	@ args = 0, pretend = 0, frame = 56
	@ frame_needed = 0, uses_anonymous_args = 0
	push	{lr}
.LCFI31:
	sub	sp, sp, #60
.LCFI32:
	str	r0, [sp, #4]
	.loc 1 722 10
	movs	r3, #0
	str	r3, [sp, #12]
	add	r3, sp, #16
	movs	r2, #37
	movs	r1, #0
	mov	r0, r3
	bl	memset
	.loc 1 723 10
	movs	r3, #0
	strb	r3, [sp, #11]
	.loc 1 726 9
	ldr	r0, [sp, #4]
	bl	null_ptr_check
	mov	r3, r0
	strb	r3, [sp, #55]
	.loc 1 727 5
	ldrsb	r3, [sp, #55]
	cmp	r3, #0
	bne	.L75
	.loc 1 728 10
	add	r1, sp, #12
	ldr	r3, [sp, #4]
	movs	r2, #25
	movs	r0, #137
	bl	bme680_get_regs
	mov	r3, r0
	strb	r3, [sp, #55]
	.loc 1 730 6
	ldrsb	r3, [sp, #55]
	cmp	r3, #0
	bne	.L76
	.loc 1 731 11
	add	r3, sp, #12
	add	r1, r3, #25
	ldr	r3, [sp, #4]
	movs	r2, #16
	movs	r0, #225
	bl	bme680_get_regs
	mov	r3, r0
	strb	r3, [sp, #55]
.L76:
	.loc 1 735 35
	ldrb	r3, [sp, #46]	@ zero_extendqisi2
	lsls	r3, r3, #8
	sxth	r2, r3
	ldrb	r3, [sp, #45]	@ zero_extendqisi2
	sxth	r3, r3
	orrs	r3, r3, r2
	sxth	r3, r3
	.loc 1 735 23
	uxth	r2, r3
	.loc 1 735 21
	ldr	r3, [sp, #4]
	strh	r2, [r3, #22]	@ movhi
	.loc 1 737 34
	ldrb	r3, [sp, #14]	@ zero_extendqisi2
	lsls	r3, r3, #8
	.loc 1 737 23
	sxth	r2, r3
	.loc 1 737 34
	ldrb	r3, [sp, #13]	@ zero_extendqisi2
	sxth	r3, r3
	.loc 1 737 23
	orrs	r3, r3, r2
	sxth	r2, r3
	.loc 1 737 21
	ldr	r3, [sp, #4]
	strh	r2, [r3, #24]	@ movhi
	.loc 1 739 44
	ldrb	r3, [sp, #15]	@ zero_extendqisi2
	.loc 1 739 23
	sxtb	r2, r3
	.loc 1 739 21
	ldr	r3, [sp, #4]
	strb	r2, [r3, #26]
	.loc 1 742 35
	ldrb	r3, [sp, #18]	@ zero_extendqisi2
	lsls	r3, r3, #8
	sxth	r2, r3
	ldrb	r3, [sp, #17]	@ zero_extendqisi2
	sxth	r3, r3
	orrs	r3, r3, r2
	sxth	r3, r3
	.loc 1 742 23
	uxth	r2, r3
	.loc 1 742 21
	ldr	r3, [sp, #4]
	strh	r2, [r3, #28]	@ movhi
	.loc 1 744 34
	ldrb	r3, [sp, #20]	@ zero_extendqisi2
	lsls	r3, r3, #8
	.loc 1 744 23
	sxth	r2, r3
	.loc 1 744 34
	ldrb	r3, [sp, #19]	@ zero_extendqisi2
	sxth	r3, r3
	.loc 1 744 23
	orrs	r3, r3, r2
	sxth	r2, r3
	.loc 1 744 21
	ldr	r3, [sp, #4]
	strh	r2, [r3, #30]	@ movhi
	.loc 1 746 43
	ldrb	r3, [sp, #21]	@ zero_extendqisi2
	.loc 1 746 23
	sxtb	r2, r3
	.loc 1 746 21
	ldr	r3, [sp, #4]
	strb	r2, [r3, #32]
	.loc 1 747 34
	ldrb	r3, [sp, #24]	@ zero_extendqisi2
	lsls	r3, r3, #8
	.loc 1 747 23
	sxth	r2, r3
	.loc 1 747 34
	ldrb	r3, [sp, #23]	@ zero_extendqisi2
	sxth	r3, r3
	.loc 1 747 23
	orrs	r3, r3, r2
	sxth	r2, r3
	.loc 1 747 21
	ldr	r3, [sp, #4]
	strh	r2, [r3, #34]	@ movhi
	.loc 1 749 34
	ldrb	r3, [sp, #26]	@ zero_extendqisi2
	lsls	r3, r3, #8
	.loc 1 749 23
	sxth	r2, r3
	.loc 1 749 34
	ldrb	r3, [sp, #25]	@ zero_extendqisi2
	sxth	r3, r3
	.loc 1 749 23
	orrs	r3, r3, r2
	sxth	r2, r3
	.loc 1 749 21
	ldr	r3, [sp, #4]
	strh	r2, [r3, #36]	@ movhi
	.loc 1 751 44
	ldrb	r3, [sp, #28]	@ zero_extendqisi2
	.loc 1 751 23
	sxtb	r2, r3
	.loc 1 751 21
	ldr	r3, [sp, #4]
	strb	r2, [r3, #38]
	.loc 1 752 44
	ldrb	r3, [sp, #27]	@ zero_extendqisi2
	.loc 1 752 23
	sxtb	r2, r3
	.loc 1 752 21
	ldr	r3, [sp, #4]
	strb	r2, [r3, #39]
	.loc 1 753 34
	ldrb	r3, [sp, #32]	@ zero_extendqisi2
	lsls	r3, r3, #8
	.loc 1 753 23
	sxth	r2, r3
	.loc 1 753 34
	ldrb	r3, [sp, #31]	@ zero_extendqisi2
	sxth	r3, r3
	.loc 1 753 23
	orrs	r3, r3, r2
	sxth	r2, r3
	.loc 1 753 21
	ldr	r3, [sp, #4]
	strh	r2, [r3, #40]	@ movhi
	.loc 1 755 34
	ldrb	r3, [sp, #34]	@ zero_extendqisi2
	lsls	r3, r3, #8
	.loc 1 755 23
	sxth	r2, r3
	.loc 1 755 34
	ldrb	r3, [sp, #33]	@ zero_extendqisi2
	sxth	r3, r3
	.loc 1 755 23
	orrs	r3, r3, r2
	sxth	r2, r3
	.loc 1 755 21
	ldr	r3, [sp, #4]
	strh	r2, [r3, #42]	@ movhi
	.loc 1 757 46
	ldrb	r2, [sp, #35]	@ zero_extendqisi2
	.loc 1 757 22
	ldr	r3, [sp, #4]
	strb	r2, [r3, #44]
	.loc 1 760 58
	ldrb	r3, [sp, #39]	@ zero_extendqisi2
	uxth	r3, r3
	.loc 1 760 78
	lsls	r3, r3, #4
	uxth	r2, r3
	.loc 1 761 18
	ldrb	r3, [sp, #38]	@ zero_extendqisi2
	uxth	r3, r3
	.loc 1 761 38
	and	r3, r3, #15
	uxth	r3, r3
	.loc 1 760 23
	orrs	r3, r3, r2
	uxth	r2, r3
	.loc 1 760 21
	ldr	r3, [sp, #4]
	strh	r2, [r3, #8]	@ movhi
	.loc 1 762 58
	ldrb	r3, [sp, #37]	@ zero_extendqisi2
	.loc 1 762 78
	lsls	r3, r3, #4
	.loc 1 763 4
	sxth	r2, r3
	.loc 1 763 19
	ldrb	r3, [sp, #38]	@ zero_extendqisi2
	.loc 1 763 4
	lsrs	r3, r3, #4
	uxtb	r3, r3
	sxth	r3, r3
	orrs	r3, r3, r2
	sxth	r3, r3
	.loc 1 762 23
	uxth	r2, r3
	.loc 1 762 21
	ldr	r3, [sp, #4]
	strh	r2, [r3, #10]	@ movhi
	.loc 1 764 43
	ldrb	r3, [sp, #40]	@ zero_extendqisi2
	.loc 1 764 23
	sxtb	r2, r3
	.loc 1 764 21
	ldr	r3, [sp, #4]
	strb	r2, [r3, #12]
	.loc 1 765 43
	ldrb	r3, [sp, #41]	@ zero_extendqisi2
	.loc 1 765 23
	sxtb	r2, r3
	.loc 1 765 21
	ldr	r3, [sp, #4]
	strb	r2, [r3, #13]
	.loc 1 766 43
	ldrb	r3, [sp, #42]	@ zero_extendqisi2
	.loc 1 766 23
	sxtb	r2, r3
	.loc 1 766 21
	ldr	r3, [sp, #4]
	strb	r2, [r3, #14]
	.loc 1 767 44
	ldrb	r2, [sp, #43]	@ zero_extendqisi2
	.loc 1 767 21
	ldr	r3, [sp, #4]
	strb	r2, [r3, #15]
	.loc 1 768 43
	ldrb	r3, [sp, #44]	@ zero_extendqisi2
	.loc 1 768 23
	sxtb	r2, r3
	.loc 1 768 21
	ldr	r3, [sp, #4]
	strb	r2, [r3, #16]
	.loc 1 771 44
	ldrb	r3, [sp, #49]	@ zero_extendqisi2
	.loc 1 771 24
	sxtb	r2, r3
	.loc 1 771 22
	ldr	r3, [sp, #4]
	strb	r2, [r3, #17]
	.loc 1 772 35
	ldrb	r3, [sp, #48]	@ zero_extendqisi2
	lsls	r3, r3, #8
	.loc 1 772 24
	sxth	r2, r3
	.loc 1 772 35
	ldrb	r3, [sp, #47]	@ zero_extendqisi2
	sxth	r3, r3
	.loc 1 772 24
	orrs	r3, r3, r2
	sxth	r2, r3
	.loc 1 772 22
	ldr	r3, [sp, #4]
	strh	r2, [r3, #18]	@ movhi
	.loc 1 774 44
	ldrb	r3, [sp, #50]	@ zero_extendqisi2
	.loc 1 774 24
	sxtb	r2, r3
	.loc 1 774 22
	ldr	r3, [sp, #4]
	strb	r2, [r3, #20]
	.loc 1 777 6
	ldrsb	r3, [sp, #55]
	cmp	r3, #0
	bne	.L77
	.loc 1 778 11
	add	r1, sp, #11
	ldr	r3, [sp, #4]
	movs	r2, #1
	movs	r0, #2
	bl	bme680_get_regs
	mov	r3, r0
	strb	r3, [sp, #55]
	.loc 1 780 43
	ldrb	r3, [sp, #11]	@ zero_extendqisi2
	and	r3, r3, #48
	.loc 1 780 65
	lsrs	r3, r3, #4
	.loc 1 780 30
	uxtb	r2, r3
	ldr	r3, [sp, #4]
	strb	r2, [r3, #52]
	.loc 1 781 7
	ldrsb	r3, [sp, #55]
	cmp	r3, #0
	bne	.L77
	.loc 1 782 12
	add	r1, sp, #11
	ldr	r3, [sp, #4]
	movs	r2, #1
	movs	r0, #0
	bl	bme680_get_regs
	mov	r3, r0
	strb	r3, [sp, #55]
	.loc 1 784 31
	ldrb	r3, [sp, #11]	@ zero_extendqisi2
	sxtb	r2, r3
	.loc 1 784 29
	ldr	r3, [sp, #4]
	strb	r2, [r3, #53]
	.loc 1 785 8
	ldrsb	r3, [sp, #55]
	cmp	r3, #0
	bne	.L77
	.loc 1 786 13
	add	r1, sp, #11
	ldr	r3, [sp, #4]
	movs	r2, #1
	movs	r0, #4
	bl	bme680_get_regs
	mov	r3, r0
	strb	r3, [sp, #55]
.L77:
	.loc 1 789 30
	ldrb	r3, [sp, #11]	@ zero_extendqisi2
	sxtb	r3, r3
	.loc 1 789 27
	asrs	r3, r3, #4
	sxtb	r2, r3
	ldr	r3, [sp, #4]
	strb	r2, [r3, #54]
.L75:
	.loc 1 792 9
	ldrsb	r3, [sp, #55]
	.loc 1 793 1
	mov	r0, r3
	add	sp, sp, #60
.LCFI33:
	@ sp needed
	ldr	pc, [sp], #4
.LFE11:
	.size	get_calib_data, .-get_calib_data
	.section	.text.set_gas_config,"ax",%progbits
	.align	1
	.syntax unified
	.thumb
	.thumb_func
	.fpu fpv4-sp-d16
	.type	set_gas_config, %function
set_gas_config:
.LFB12:
	.loc 1 799 1
	@ args = 0, pretend = 0, frame = 16
	@ frame_needed = 0, uses_anonymous_args = 0
	push	{lr}
.LCFI34:
	sub	sp, sp, #20
.LCFI35:
	str	r0, [sp, #4]
	.loc 1 803 9
	ldr	r0, [sp, #4]
	bl	null_ptr_check
	mov	r3, r0
	strb	r3, [sp, #15]
	.loc 1 804 5
	ldrsb	r3, [sp, #15]
	cmp	r3, #0
	bne	.L80
.LBB2:
	.loc 1 806 11
	movs	r3, #0
	strh	r3, [sp, #12]	@ movhi
	.loc 1 807 11
	movs	r3, #0
	strh	r3, [sp, #8]	@ movhi
	.loc 1 809 10
	ldr	r3, [sp, #4]
	ldrb	r3, [r3, #68]	@ zero_extendqisi2
	.loc 1 809 6
	cmp	r3, #1
	bne	.L81
	.loc 1 810 16
	movs	r3, #90
	strb	r3, [sp, #12]
	.loc 1 811 18
	ldr	r3, [sp, #4]
	ldrh	r3, [r3, #64]
	ldr	r1, [sp, #4]
	mov	r0, r3
	bl	calc_heater_res
	mov	r3, r0
	.loc 1 811 16
	strb	r3, [sp, #8]
	.loc 1 812 16
	movs	r3, #100
	strb	r3, [sp, #13]
	.loc 1 813 18
	ldr	r3, [sp, #4]
	ldrh	r3, [r3, #66]
	mov	r0, r3
	bl	calc_heater_dur
	mov	r3, r0
	.loc 1 813 16
	strb	r3, [sp, #9]
	.loc 1 814 26
	ldr	r3, [sp, #4]
	movs	r2, #0
	strb	r2, [r3, #60]
	b	.L82
.L81:
	.loc 1 816 9
	movs	r3, #1
	strb	r3, [sp, #15]
.L82:
	.loc 1 818 6
	ldrsb	r3, [sp, #15]
	cmp	r3, #0
	bne	.L80
	.loc 1 819 11
	add	r1, sp, #8
	add	r0, sp, #12
	ldr	r3, [sp, #4]
	movs	r2, #2
	bl	bme680_set_regs
	mov	r3, r0
	strb	r3, [sp, #15]
.L80:
.LBE2:
	.loc 1 822 9
	ldrsb	r3, [sp, #15]
	.loc 1 823 1
	mov	r0, r3
	add	sp, sp, #20
.LCFI36:
	@ sp needed
	ldr	pc, [sp], #4
.LFE12:
	.size	set_gas_config, .-set_gas_config
	.section	.text.get_gas_config,"ax",%progbits
	.align	1
	.syntax unified
	.thumb
	.thumb_func
	.fpu fpv4-sp-d16
	.type	get_gas_config, %function
get_gas_config:
.LFB13:
	.loc 1 831 1
	@ args = 0, pretend = 0, frame = 16
	@ frame_needed = 0, uses_anonymous_args = 0
	push	{lr}
.LCFI37:
	sub	sp, sp, #20
.LCFI38:
	str	r0, [sp, #4]
	.loc 1 834 10
	movs	r3, #90
	strb	r3, [sp, #14]
	.loc 1 835 10
	movs	r3, #100
	strb	r3, [sp, #13]
	.loc 1 836 10
	movs	r3, #0
	strb	r3, [sp, #12]
	.loc 1 839 9
	ldr	r0, [sp, #4]
	bl	null_ptr_check
	mov	r3, r0
	strb	r3, [sp, #15]
	.loc 1 840 5
	ldrsb	r3, [sp, #15]
	cmp	r3, #0
	bne	.L86
	.loc 1 841 29
	ldr	r3, [sp, #4]
	ldrb	r3, [r3, #2]	@ zero_extendqisi2
	.loc 1 841 6
	cmp	r3, #0
	bne	.L87
	.loc 1 843 11
	ldrb	r3, [sp, #14]	@ zero_extendqisi2
	ldr	r1, [sp, #4]
	mov	r0, r3
	bl	set_mem_page
	mov	r3, r0
	strb	r3, [sp, #15]
.L87:
	.loc 1 846 6
	ldrsb	r3, [sp, #15]
	cmp	r3, #0
	bne	.L86
	.loc 1 847 11
	add	r1, sp, #12
	ldrb	r0, [sp, #14]	@ zero_extendqisi2
	ldr	r3, [sp, #4]
	movs	r2, #1
	bl	bme680_get_regs
	mov	r3, r0
	strb	r3, [sp, #15]
	.loc 1 848 7
	ldrsb	r3, [sp, #15]
	cmp	r3, #0
	bne	.L86
	.loc 1 849 30
	ldrb	r3, [sp, #12]	@ zero_extendqisi2
	uxth	r2, r3
	ldr	r3, [sp, #4]
	strh	r2, [r3, #64]	@ movhi
	.loc 1 850 12
	add	r1, sp, #12
	ldrb	r0, [sp, #13]	@ zero_extendqisi2
	ldr	r3, [sp, #4]
	movs	r2, #1
	bl	bme680_get_regs
	mov	r3, r0
	strb	r3, [sp, #15]
	.loc 1 851 8
	ldrsb	r3, [sp, #15]
	cmp	r3, #0
	bne	.L86
	.loc 1 853 30
	ldrb	r3, [sp, #12]	@ zero_extendqisi2
	uxth	r2, r3
	ldr	r3, [sp, #4]
	strh	r2, [r3, #66]	@ movhi
.L86:
	.loc 1 859 9
	ldrsb	r3, [sp, #15]
	.loc 1 860 1
	mov	r0, r3
	add	sp, sp, #20
.LCFI39:
	@ sp needed
	ldr	pc, [sp], #4
.LFE13:
	.size	get_gas_config, .-get_gas_config
	.section	.text.calc_temperature,"ax",%progbits
	.align	1
	.syntax unified
	.thumb
	.thumb_func
	.fpu fpv4-sp-d16
	.type	calc_temperature, %function
calc_temperature:
.LFB14:
	.loc 1 868 1
	@ args = 0, pretend = 0, frame = 40
	@ frame_needed = 0, uses_anonymous_args = 0
	@ link register save eliminated.
	push	{r4, r5}
.LCFI40:
	sub	sp, sp, #40
.LCFI41:
	str	r0, [sp, #4]
	str	r1, [sp]
	.loc 1 874 10
	ldr	r3, [sp, #4]
	.loc 1 874 29
	asrs	r2, r3, #3
	.loc 1 874 58
	ldr	r3, [sp]
	ldrh	r3, [r3, #22]
	.loc 1 874 66
	lsls	r3, r3, #1
	.loc 1 874 35
	subs	r3, r2, r3
	.loc 1 874 7
	mov	r2, r3
	asr	r3, r2, #31
	strd	r2, [sp, #32]
	.loc 1 875 37
	ldr	r3, [sp]
	ldrsh	r3, [r3, #24]
	.loc 1 875 17
	sxth	r2, r3
	asr	r3, r2, #31
	.loc 1 875 15
	ldr	r1, [sp, #32]
	mul	r0, r3, r1
	ldr	r1, [sp, #36]
	mul	r1, r2, r1
	adds	r4, r0, r1
	ldr	r1, [sp, #32]
	umull	r0, r1, r1, r2
	adds	r3, r4, r1
	mov	r1, r3
	.loc 1 875 7
	mov	r2, #0
	mov	r3, #0
	lsrs	r2, r0, #11
	orr	r2, r2, r1, lsl #21
	asrs	r3, r1, #11
	strd	r2, [sp, #24]
	.loc 1 876 16
	ldrd	r2, [sp, #32]
	mov	r0, #0
	mov	r1, #0
	lsrs	r0, r2, #1
	orr	r0, r0, r3, lsl #31
	asrs	r1, r3, #1
	.loc 1 876 30
	ldrd	r4, [sp, #32]
	mov	r2, #0
	mov	r3, #0
	lsrs	r2, r4, #1
	orr	r2, r2, r5, lsl #31
	asrs	r3, r5, #1
	.loc 1 876 22
	mul	r5, r2, r1
	mul	r4, r0, r3
	add	r4, r4, r5
	umull	r0, r1, r0, r2
	adds	r3, r4, r1
	mov	r1, r3
	.loc 1 876 7
	mov	r2, #0
	mov	r3, #0
	lsrs	r2, r0, #12
	orr	r2, r2, r1, lsl #20
	asrs	r3, r1, #12
	strd	r2, [sp, #16]
	.loc 1 877 40
	ldr	r3, [sp]
	ldrsb	r3, [r3, #26]
	.loc 1 877 48
	lsls	r3, r3, #4
	mov	r2, r3
	asr	r3, r2, #31
	.loc 1 877 17
	ldr	r1, [sp, #16]
	mul	r0, r3, r1
	ldr	r1, [sp, #20]
	mul	r1, r2, r1
	adds	r4, r0, r1
	ldr	r1, [sp, #16]
	umull	r0, r1, r1, r2
	adds	r3, r4, r1
	mov	r1, r3
	.loc 1 877 7
	mov	r2, #0
	mov	r3, #0
	lsrs	r2, r0, #14
	orr	r2, r2, r1, lsl #18
	asrs	r3, r1, #14
	strd	r2, [sp, #16]
	.loc 1 878 38
	ldr	r2, [sp, #24]
	ldr	r3, [sp, #16]
	add	r3, r3, r2
	.loc 1 878 22
	mov	r2, r3
	.loc 1 878 20
	ldr	r3, [sp]
	str	r2, [r3, #48]
	.loc 1 879 37
	ldr	r3, [sp]
	ldr	r2, [r3, #48]
	.loc 1 879 45
	mov	r3, r2
	lsls	r3, r3, #2
	add	r3, r3, r2
	.loc 1 879 50
	adds	r3, r3, #128
	.loc 1 879 57
	asrs	r3, r3, #8
	.loc 1 879 12
	strh	r3, [sp, #14]	@ movhi
	.loc 1 881 9
	ldrsh	r3, [sp, #14]
	.loc 1 882 1
	mov	r0, r3
	add	sp, sp, #40
.LCFI42:
	@ sp needed
	pop	{r4, r5}
.LCFI43:
	bx	lr
.LFE14:
	.size	calc_temperature, .-calc_temperature
	.section	.text.calc_pressure,"ax",%progbits
	.align	1
	.syntax unified
	.thumb
	.thumb_func
	.fpu fpv4-sp-d16
	.type	calc_pressure, %function
calc_pressure:
.LFB15:
	.loc 1 888 1
	@ args = 0, pretend = 0, frame = 24
	@ frame_needed = 0, uses_anonymous_args = 0
	@ link register save eliminated.
	sub	sp, sp, #24
.LCFI44:
	str	r0, [sp, #4]
	str	r1, [sp]
	.loc 1 894 30
	ldr	r3, [sp]
	ldr	r3, [r3, #48]
	.loc 1 894 39
	asrs	r3, r3, #1
	.loc 1 894 7
	sub	r3, r3, #64000
	str	r3, [sp, #16]
	.loc 1 895 18
	ldr	r3, [sp, #16]
	asrs	r3, r3, #2
	.loc 1 895 32
	ldr	r2, [sp, #16]
	asrs	r2, r2, #2
	.loc 1 895 24
	mul	r3, r2, r3
	.loc 1 895 39
	asrs	r3, r3, #11
	.loc 1 896 22
	ldr	r2, [sp]
	ldrsb	r2, [r2, #38]
	.loc 1 895 46
	mul	r3, r2, r3
	.loc 1 895 7
	asrs	r3, r3, #2
	str	r3, [sp, #12]
	.loc 1 897 44
	ldr	r3, [sp]
	ldrsh	r3, [r3, #36]
	.loc 1 897 25
	mov	r2, r3
	.loc 1 897 23
	ldr	r3, [sp, #16]
	mul	r3, r3, r2
	.loc 1 897 53
	lsls	r3, r3, #1
	.loc 1 897 7
	ldr	r2, [sp, #12]
	add	r3, r3, r2
	str	r3, [sp, #12]
	.loc 1 898 15
	ldr	r3, [sp, #12]
	asrs	r2, r3, #2
	.loc 1 898 43
	ldr	r3, [sp]
	ldrsh	r3, [r3, #34]
	.loc 1 898 51
	lsls	r3, r3, #16
	.loc 1 898 7
	add	r3, r3, r2
	str	r3, [sp, #12]
	.loc 1 899 19
	ldr	r3, [sp, #16]
	asrs	r3, r3, #2
	.loc 1 899 33
	ldr	r2, [sp, #16]
	asrs	r2, r2, #2
	.loc 1 899 25
	mul	r3, r2, r3
	.loc 1 899 40
	asrs	r3, r3, #13
	.loc 1 900 23
	ldr	r2, [sp]
	ldrsb	r2, [r2, #32]
	.loc 1 900 31
	lsls	r2, r2, #5
	.loc 1 899 47
	mul	r3, r2, r3
	.loc 1 900 38
	asrs	r2, r3, #3
	.loc 1 901 24
	ldr	r3, [sp]
	ldrsh	r3, [r3, #30]
	.loc 1 901 5
	mov	r1, r3
	.loc 1 901 32
	ldr	r3, [sp, #16]
	mul	r3, r3, r1
	.loc 1 901 40
	asrs	r3, r3, #1
	.loc 1 899 7
	add	r3, r3, r2
	str	r3, [sp, #16]
	.loc 1 902 7
	ldr	r3, [sp, #16]
	asrs	r3, r3, #18
	str	r3, [sp, #16]
	.loc 1 903 17
	ldr	r3, [sp, #16]
	add	r3, r3, #32768
	.loc 1 903 46
	ldr	r2, [sp]
	ldrh	r2, [r2, #28]
	.loc 1 903 25
	mul	r3, r2, r3
	.loc 1 903 7
	asrs	r3, r3, #15
	str	r3, [sp, #16]
	.loc 1 904 26
	ldr	r3, [sp, #4]
	rsb	r3, r3, #1048576
	.loc 1 904 16
	str	r3, [sp, #20]
	.loc 1 905 51
	ldr	r3, [sp, #12]
	asrs	r3, r3, #12
	.loc 1 905 43
	ldr	r2, [sp, #20]
	subs	r3, r2, r3
	mov	r2, r3
	.loc 1 905 59
	movw	r3, #3125
	mul	r3, r3, r2
	.loc 1 905 16
	str	r3, [sp, #20]
	.loc 1 906 5
	ldr	r3, [sp, #20]
	cmp	r3, #1073741824
	blt	.L92
	.loc 1 907 35
	ldr	r2, [sp, #20]
	ldr	r3, [sp, #16]
	sdiv	r3, r2, r3
	.loc 1 907 17
	lsls	r3, r3, #1
	str	r3, [sp, #20]
	b	.L93
.L92:
	.loc 1 909 35
	ldr	r3, [sp, #20]
	lsls	r2, r3, #1
	.loc 1 909 17
	ldr	r3, [sp, #16]
	sdiv	r3, r2, r3
	str	r3, [sp, #20]
.L93:
	.loc 1 910 29
	ldr	r3, [sp]
	ldrsh	r3, [r3, #42]
	.loc 1 910 10
	mov	r1, r3
	.loc 1 910 65
	ldr	r3, [sp, #20]
	asrs	r3, r3, #3
	.loc 1 911 18
	ldr	r2, [sp, #20]
	asrs	r2, r2, #3
	.loc 1 910 71
	mul	r3, r2, r3
	.loc 1 911 25
	asrs	r3, r3, #13
	.loc 1 910 37
	mul	r3, r3, r1
	.loc 1 910 7
	asrs	r3, r3, #12
	str	r3, [sp, #16]
	.loc 1 912 34
	ldr	r3, [sp, #20]
	asrs	r3, r3, #2
	.loc 1 913 22
	ldr	r2, [sp]
	ldrsh	r2, [r2, #40]
	.loc 1 912 40
	mul	r3, r2, r3
	.loc 1 912 7
	asrs	r3, r3, #13
	str	r3, [sp, #12]
	.loc 1 914 34
	ldr	r3, [sp, #20]
	asrs	r3, r3, #8
	.loc 1 914 66
	ldr	r2, [sp, #20]
	asrs	r2, r2, #8
	.loc 1 914 40
	mul	r3, r2, r3
	.loc 1 915 27
	ldr	r2, [sp, #20]
	asrs	r2, r2, #8
	.loc 1 914 72
	mul	r3, r2, r3
	.loc 1 916 22
	ldr	r2, [sp]
	ldrb	r2, [r2, #44]	@ zero_extendqisi2
	.loc 1 915 33
	mul	r3, r2, r3
	.loc 1 914 7
	asrs	r3, r3, #17
	str	r3, [sp, #8]
	.loc 1 918 52
	ldr	r2, [sp, #16]
	ldr	r3, [sp, #12]
	add	r2, r2, r3
	.loc 1 918 59
	ldr	r3, [sp, #8]
	add	r2, r2, r3
	.loc 1 919 23
	ldr	r3, [sp]
	ldrsb	r3, [r3, #39]
	.loc 1 919 31
	lsls	r3, r3, #7
	.loc 1 918 66
	add	r3, r3, r2
	.loc 1 919 38
	asrs	r3, r3, #4
	.loc 1 918 16
	ldr	r2, [sp, #20]
	add	r3, r3, r2
	str	r3, [sp, #20]
	.loc 1 921 9
	ldr	r3, [sp, #20]
	.loc 1 923 1
	mov	r0, r3
	add	sp, sp, #24
.LCFI45:
	@ sp needed
	bx	lr
.LFE15:
	.size	calc_pressure, .-calc_pressure
	.section	.text.calc_humidity,"ax",%progbits
	.align	1
	.syntax unified
	.thumb
	.thumb_func
	.fpu fpv4-sp-d16
	.type	calc_humidity, %function
calc_humidity:
.LFB16:
	.loc 1 929 1
	@ args = 0, pretend = 0, frame = 40
	@ frame_needed = 0, uses_anonymous_args = 0
	@ link register save eliminated.
	sub	sp, sp, #40
.LCFI46:
	mov	r3, r0
	str	r1, [sp]
	strh	r3, [sp, #6]	@ movhi
	.loc 1 939 38
	ldr	r3, [sp]
	ldr	r2, [r3, #48]
	.loc 1 939 46
	mov	r3, r2
	lsls	r3, r3, #2
	add	r3, r3, r2
	.loc 1 939 51
	adds	r3, r3, #128
	.loc 1 939 14
	asrs	r3, r3, #8
	str	r3, [sp, #32]
	.loc 1 940 9
	ldrh	r2, [sp, #6]
	.loc 1 940 62
	ldr	r3, [sp]
	ldrh	r3, [r3, #8]
	.loc 1 940 31
	lsls	r3, r3, #4
	.loc 1 940 9
	subs	r2, r2, r3
	.loc 1 941 42
	ldr	r3, [sp]
	ldrsb	r3, [r3, #12]
	.loc 1 941 22
	mov	r1, r3
	.loc 1 941 20
	ldr	r3, [sp, #32]
	mul	r3, r3, r1
	.loc 1 941 51
	ldr	r1, .L99
	smull	r0, r1, r1, r3
	asrs	r1, r1, #5
	asrs	r3, r3, #31
	subs	r3, r1, r3
	.loc 1 941 70
	asrs	r3, r3, #1
	.loc 1 940 7
	subs	r3, r2, r3
	str	r3, [sp, #28]
	.loc 1 942 30
	ldr	r3, [sp]
	ldrh	r3, [r3, #10]
	.loc 1 942 10
	mov	r0, r3
	.loc 1 943 42
	ldr	r3, [sp]
	ldrsb	r3, [r3, #13]
	.loc 1 943 22
	mov	r2, r3
	.loc 1 943 20
	ldr	r3, [sp, #32]
	mul	r3, r3, r2
	.loc 1 943 51
	ldr	r2, .L99
	smull	r1, r2, r2, r3
	asrs	r2, r2, #5
	asrs	r3, r3, #31
	subs	r2, r2, r3
	.loc 1 944 59
	ldr	r3, [sp]
	ldrsb	r3, [r3, #14]
	.loc 1 944 39
	mov	r1, r3
	.loc 1 944 37
	ldr	r3, [sp, #32]
	mul	r3, r3, r1
	.loc 1 944 68
	ldr	r1, .L99
	smull	ip, r1, r1, r3
	asrs	r1, r1, #5
	asrs	r3, r3, #31
	subs	r3, r1, r3
	.loc 1 944 21
	ldr	r1, [sp, #32]
	mul	r3, r1, r3
	.loc 1 944 88
	asrs	r3, r3, #6
	.loc 1 945 5
	ldr	r1, .L99
	smull	ip, r1, r1, r3
	asrs	r1, r1, #5
	asrs	r3, r3, #31
	subs	r3, r1, r3
	.loc 1 944 4
	add	r3, r3, r2
	.loc 1 945 24
	add	r3, r3, #16384
	.loc 1 943 3
	mul	r3, r3, r0
	.loc 1 942 7
	asrs	r3, r3, #10
	str	r3, [sp, #24]
	.loc 1 946 7
	ldr	r3, [sp, #28]
	ldr	r2, [sp, #24]
	mul	r3, r2, r3
	str	r3, [sp, #20]
	.loc 1 947 29
	ldr	r3, [sp]
	ldrb	r3, [r3, #15]	@ zero_extendqisi2
	.loc 1 947 7
	lsls	r3, r3, #7
	str	r3, [sp, #16]
	.loc 1 948 55
	ldr	r3, [sp]
	ldrsb	r3, [r3, #16]
	.loc 1 948 35
	mov	r2, r3
	.loc 1 948 33
	ldr	r3, [sp, #32]
	mul	r3, r3, r2
	.loc 1 948 64
	ldr	r2, .L99
	smull	r1, r2, r2, r3
	asrs	r2, r2, #5
	asrs	r3, r3, #31
	subs	r2, r2, r3
	.loc 1 948 17
	ldr	r3, [sp, #16]
	add	r3, r3, r2
	.loc 1 948 7
	asrs	r3, r3, #4
	str	r3, [sp, #16]
	.loc 1 949 16
	ldr	r3, [sp, #20]
	asrs	r3, r3, #14
	.loc 1 949 31
	ldr	r2, [sp, #20]
	asrs	r2, r2, #14
	.loc 1 949 23
	mul	r3, r2, r3
	.loc 1 949 7
	asrs	r3, r3, #10
	str	r3, [sp, #12]
	.loc 1 950 15
	ldr	r3, [sp, #16]
	ldr	r2, [sp, #12]
	mul	r3, r2, r3
	.loc 1 950 7
	asrs	r3, r3, #1
	str	r3, [sp, #8]
	.loc 1 951 21
	ldr	r2, [sp, #20]
	ldr	r3, [sp, #8]
	add	r3, r3, r2
	.loc 1 951 29
	asrs	r3, r3, #10
	.loc 1 951 36
	mov	r2, #1000
	mul	r3, r2, r3
	.loc 1 951 11
	asrs	r3, r3, #12
	str	r3, [sp, #36]
	.loc 1 953 5
	ldr	r3, [sp, #36]
	ldr	r2, .L99+4
	cmp	r3, r2
	ble	.L96
	.loc 1 954 12
	ldr	r3, .L99+4
	str	r3, [sp, #36]
	b	.L97
.L96:
	.loc 1 955 10
	ldr	r3, [sp, #36]
	cmp	r3, #0
	bge	.L97
	.loc 1 956 12
	movs	r3, #0
	str	r3, [sp, #36]
.L97:
	.loc 1 958 9
	ldr	r3, [sp, #36]
	.loc 1 959 1
	mov	r0, r3
	add	sp, sp, #40
.LCFI47:
	@ sp needed
	bx	lr
.L100:
	.align	2
.L99:
	.word	1374389535
	.word	100000
.LFE16:
	.size	calc_humidity, .-calc_humidity
	.global	__aeabi_ldivmod
	.section .rodata
	.align	2
.LC0:
	.word	2147483647
	.word	2147483647
	.word	2147483647
	.word	2147483647
	.word	2147483647
	.word	2126008810
	.word	2147483647
	.word	2130303777
	.word	2147483647
	.word	2147483647
	.word	2143188679
	.word	2136746228
	.word	2147483647
	.word	2126008810
	.word	2147483647
	.word	2147483647
	.align	2
.LC1:
	.word	-198967296
	.word	2048000000
	.word	1024000000
	.word	512000000
	.word	255744255
	.word	127110228
	.word	64000000
	.word	32258064
	.word	16016016
	.word	8000000
	.word	4000000
	.word	2000000
	.word	1000000
	.word	500000
	.word	250000
	.word	125000
	.section	.text.calc_gas_resistance,"ax",%progbits
	.align	1
	.syntax unified
	.thumb
	.thumb_func
	.fpu fpv4-sp-d16
	.type	calc_gas_resistance, %function
calc_gas_resistance:
.LFB17:
	.loc 1 965 1
	@ args = 0, pretend = 0, frame = 184
	@ frame_needed = 0, uses_anonymous_args = 0
	push	{r4, r5, r6, r7, r8, r9, r10, fp, lr}
.LCFI48:
	sub	sp, sp, #188
.LCFI49:
	mov	r3, r0
	str	r2, [sp, #16]
	strh	r3, [sp, #22]	@ movhi
	mov	r3, r1
	strb	r3, [sp, #21]
	.loc 1 971 11
	ldr	r3, .L103
	add	r5, sp, #92
	mov	r4, r3
	ldmia	r4!, {r0, r1, r2, r3}
	stmia	r5!, {r0, r1, r2, r3}
	ldmia	r4!, {r0, r1, r2, r3}
	stmia	r5!, {r0, r1, r2, r3}
	ldmia	r4!, {r0, r1, r2, r3}
	stmia	r5!, {r0, r1, r2, r3}
	ldm	r4, {r0, r1, r2, r3}
	stm	r5, {r0, r1, r2, r3}
	.loc 1 976 11
	ldr	r3, .L103+4
	add	r5, sp, #28
	mov	r4, r3
	ldmia	r4!, {r0, r1, r2, r3}
	stmia	r5!, {r0, r1, r2, r3}
	ldmia	r4!, {r0, r1, r2, r3}
	stmia	r5!, {r0, r1, r2, r3}
	ldmia	r4!, {r0, r1, r2, r3}
	stmia	r5!, {r0, r1, r2, r3}
	ldm	r4, {r0, r1, r2, r3}
	stm	r5, {r0, r1, r2, r3}
	.loc 1 981 53
	ldr	r3, [sp, #16]
	ldrsb	r3, [r3, #54]
	.loc 1 981 33
	sxtb	r4, r3
	asr	r5, r4, #31
	.loc 1 981 31
	mov	r2, r4
	mov	r3, r5
	mov	r0, #0
	mov	r1, #0
	lsls	r1, r3, #2
	orr	r1, r1, r2, lsr #30
	lsls	r0, r2, #2
	mov	r2, r0
	mov	r3, r1
	adds	r10, r2, r4
	adc	fp, r3, r5
	.loc 1 981 26
	movw	r2, #1340
	mov	r3, #0
	adds	r6, r10, r2
	adc	r7, fp, r3
	.loc 1 982 26
	ldrb	r3, [sp, #21]	@ zero_extendqisi2
	lsls	r3, r3, #2
	add	r2, sp, #184
	add	r3, r3, r2
	ldr	r3, [r3, #-92]
	.loc 1 982 4
	mov	r2, r3
	mov	r3, #0
	.loc 1 981 9
	mul	r0, r2, r7
	mul	r1, r6, r3
	adds	r4, r0, r1
	umull	r0, r1, r6, r2
	adds	r3, r4, r1
	mov	r1, r3
	.loc 1 981 7
	mov	r2, #0
	mov	r3, #0
	lsrs	r2, r0, #16
	orr	r2, r2, r1, lsl #16
	asrs	r3, r1, #16
	strd	r2, [sp, #176]
	.loc 1 983 22
	ldrh	r0, [sp, #22]
	mov	r1, #0
	.loc 1 983 11
	mov	r2, #0
	mov	r3, #0
	lsls	r3, r1, #15
	orr	r3, r3, r0, lsr #17
	lsls	r2, r0, #15
	.loc 1 983 51
	adds	r8, r2, #-16777216
	adc	r9, r3, #-1
	.loc 1 983 75
	ldrd	r2, [sp, #176]
	adds	r1, r8, r2
	str	r1, [sp]
	adc	r3, r9, r3
	str	r3, [sp, #4]
	.loc 1 983 7
	ldrd	r3, [sp]
	strd	r3, [sp, #168]
	.loc 1 984 33
	ldrb	r3, [sp, #21]	@ zero_extendqisi2
	lsls	r3, r3, #2
	add	r2, sp, #184
	add	r3, r3, r2
	ldr	r3, [r3, #-156]
	.loc 1 984 11
	mov	r2, r3
	mov	r3, #0
	.loc 1 984 45
	ldr	r1, [sp, #176]
	mul	r0, r3, r1
	ldr	r1, [sp, #180]
	mul	r1, r2, r1
	adds	r4, r0, r1
	ldr	r1, [sp, #176]
	umull	r0, r1, r1, r2
	adds	r3, r4, r1
	mov	r1, r3
	.loc 1 984 7
	mov	r2, #0
	mov	r3, #0
	lsrs	r2, r0, #9
	orr	r2, r2, r1, lsl #23
	asrs	r3, r1, #9
	strd	r2, [sp, #160]
	.loc 1 985 38
	ldrd	r0, [sp, #168]
	.loc 1 985 53
	mov	r2, #0
	mov	r3, #0
	lsrs	r2, r0, #1
	orr	r2, r2, r1, lsl #31
	asrs	r3, r1, #1
	.loc 1 985 35
	ldrd	r0, [sp, #160]
	adds	r4, r2, r0
	str	r4, [sp, #8]
	adcs	r3, r3, r1
	str	r3, [sp, #12]
	.loc 1 985 62
	ldrd	r2, [sp, #168]
	.loc 1 985 60
	ldrd	r0, [sp, #8]
	bl	__aeabi_ldivmod
.LVL4:
	mov	r2, r0
	mov	r3, r1
	.loc 1 985 15
	mov	r3, r2
	str	r3, [sp, #156]
	.loc 1 987 9
	ldr	r3, [sp, #156]
	.loc 1 988 1
	mov	r0, r3
	add	sp, sp, #188
.LCFI50:
	@ sp needed
	pop	{r4, r5, r6, r7, r8, r9, r10, fp, pc}
.L104:
	.align	2
.L103:
	.word	.LC0
	.word	.LC1
.LFE17:
	.size	calc_gas_resistance, .-calc_gas_resistance
	.section	.text.calc_heater_res,"ax",%progbits
	.align	1
	.syntax unified
	.thumb
	.thumb_func
	.fpu fpv4-sp-d16
	.type	calc_heater_res, %function
calc_heater_res:
.LFB18:
	.loc 1 994 1
	@ args = 0, pretend = 0, frame = 40
	@ frame_needed = 0, uses_anonymous_args = 0
	@ link register save eliminated.
	sub	sp, sp, #40
.LCFI51:
	mov	r3, r0
	str	r1, [sp]
	strh	r3, [sp, #6]	@ movhi
	.loc 1 1003 5
	ldrh	r3, [sp, #6]
	cmp	r3, #400
	bls	.L106
	.loc 1 1004 8
	mov	r3, #400
	strh	r3, [sp, #6]	@ movhi
.L106:
	.loc 1 1006 24
	ldr	r3, [sp]
	ldrsb	r3, [r3, #4]
	.loc 1 1006 11
	mov	r2, r3
	.loc 1 1006 47
	ldr	r3, [sp]
	ldrsb	r3, [r3, #20]
	.loc 1 1006 35
	mul	r3, r3, r2
	.loc 1 1006 57
	ldr	r2, .L108
	smull	r1, r2, r2, r3
	asrs	r2, r2, #6
	asrs	r3, r3, #31
	subs	r3, r2, r3
	.loc 1 1006 7
	lsls	r3, r3, #8
	str	r3, [sp, #36]
	.loc 1 1007 20
	ldr	r3, [sp]
	ldrsb	r3, [r3, #17]
	.loc 1 1007 29
	add	r2, r3, #784
	.loc 1 1007 53
	ldr	r3, [sp]
	ldrsh	r3, [r3, #18]
	.loc 1 1007 62
	add	r3, r3, #153600
	addw	r3, r3, #409
	.loc 1 1007 72
	ldrh	r1, [sp, #6]
	mul	r3, r1, r3
	.loc 1 1007 84
	ldr	r1, .L108+4
	smull	r0, r1, r1, r3
	asrs	r1, r1, #3
	asrs	r3, r3, #31
	subs	r3, r1, r3
	.loc 1 1007 91
	add	r3, r3, #3276800
	.loc 1 1007 102
	ldr	r1, .L108+4
	smull	r0, r1, r1, r3
	asrs	r1, r1, #2
	asrs	r3, r3, #31
	subs	r3, r1, r3
	.loc 1 1007 7
	mul	r3, r3, r2
	str	r3, [sp, #32]
	.loc 1 1008 22
	ldr	r3, [sp, #32]
	lsrs	r2, r3, #31
	add	r3, r3, r2
	asrs	r3, r3, #1
	mov	r2, r3
	.loc 1 1008 7
	ldr	r3, [sp, #36]
	add	r3, r3, r2
	str	r3, [sp, #28]
	.loc 1 1009 28
	ldr	r3, [sp]
	ldrb	r3, [r3, #52]	@ zero_extendqisi2
	.loc 1 1009 44
	adds	r3, r3, #4
	.loc 1 1009 7
	ldr	r2, [sp, #28]
	sdiv	r3, r2, r3
	str	r3, [sp, #24]
	.loc 1 1010 26
	ldr	r3, [sp]
	ldrsb	r3, [r3, #53]
	mov	r2, r3
	.loc 1 1010 14
	mov	r3, r2
	lsls	r3, r3, #6
	add	r3, r3, r2
	lsls	r3, r3, #1
	add	r3, r3, r2
	.loc 1 1010 7
	add	r3, r3, #65536
	str	r3, [sp, #20]
	.loc 1 1011 37
	ldr	r2, [sp, #24]
	ldr	r3, [sp, #20]
	sdiv	r3, r2, r3
	.loc 1 1011 45
	sub	r2, r3, #250
	.loc 1 1011 17
	mov	r3, r2
	lsls	r3, r3, #4
	add	r3, r3, r2
	lsls	r3, r3, #1
	str	r3, [sp, #16]
	.loc 1 1012 41
	ldr	r3, [sp, #16]
	adds	r3, r3, #50
	.loc 1 1012 47
	ldr	r2, .L108+8
	smull	r1, r2, r2, r3
	asrs	r2, r2, #5
	asrs	r3, r3, #31
	subs	r3, r2, r3
	.loc 1 1012 12
	strb	r3, [sp, #15]
	.loc 1 1014 9
	ldrb	r3, [sp, #15]	@ zero_extendqisi2
	.loc 1 1015 1
	mov	r0, r3
	add	sp, sp, #40
.LCFI52:
	@ sp needed
	bx	lr
.L109:
	.align	2
.L108:
	.word	274877907
	.word	1717986919
	.word	1374389535
.LFE18:
	.size	calc_heater_res, .-calc_heater_res
	.section	.text.calc_heater_dur,"ax",%progbits
	.align	1
	.syntax unified
	.thumb
	.thumb_func
	.fpu fpv4-sp-d16
	.type	calc_heater_dur, %function
calc_heater_dur:
.LFB19:
	.loc 1 1180 1
	@ args = 0, pretend = 0, frame = 16
	@ frame_needed = 0, uses_anonymous_args = 0
	@ link register save eliminated.
	sub	sp, sp, #16
.LCFI53:
	mov	r3, r0
	strh	r3, [sp, #6]	@ movhi
	.loc 1 1181 10
	movs	r3, #0
	strb	r3, [sp, #15]
	.loc 1 1184 5
	ldrh	r3, [sp, #6]
	cmp	r3, #4032
	bcc	.L113
	.loc 1 1185 10
	movs	r3, #255
	strb	r3, [sp, #14]
	b	.L112
.L114:
	.loc 1 1188 8
	ldrh	r3, [sp, #6]
	lsrs	r3, r3, #2
	strh	r3, [sp, #6]	@ movhi
	.loc 1 1189 11
	ldrb	r3, [sp, #15]
	adds	r3, r3, #1
	strb	r3, [sp, #15]
.L113:
	.loc 1 1187 9
	ldrh	r3, [sp, #6]
	cmp	r3, #63
	bhi	.L114
	.loc 1 1191 12
	ldrh	r3, [sp, #6]	@ movhi
	uxtb	r2, r3
	ldrb	r3, [sp, #15]
	lsls	r3, r3, #6
	uxtb	r3, r3
	.loc 1 1191 10
	add	r3, r3, r2
	strb	r3, [sp, #14]
.L112:
	.loc 1 1194 9
	ldrb	r3, [sp, #14]	@ zero_extendqisi2
	.loc 1 1195 1
	mov	r0, r3
	add	sp, sp, #16
.LCFI54:
	@ sp needed
	bx	lr
.LFE19:
	.size	calc_heater_dur, .-calc_heater_dur
	.section	.text.read_field_data,"ax",%progbits
	.align	1
	.syntax unified
	.thumb
	.thumb_func
	.fpu fpv4-sp-d16
	.type	read_field_data, %function
read_field_data:
.LFB20:
	.loc 1 1201 1
	@ args = 0, pretend = 0, frame = 40
	@ frame_needed = 0, uses_anonymous_args = 0
	push	{lr}
.LCFI55:
	sub	sp, sp, #44
.LCFI56:
	str	r0, [sp, #4]
	str	r1, [sp]
	.loc 1 1203 10
	movs	r3, #0
	str	r3, [sp, #8]
	add	r3, sp, #12
	movs	r2, #0
	str	r2, [r3]
	str	r2, [r3, #4]
	str	r2, [r3, #7]	@ unaligned
	.loc 1 1209 10
	movs	r3, #10
	strb	r3, [sp, #38]
	.loc 1 1212 9
	ldr	r0, [sp]
	bl	null_ptr_check
	mov	r3, r0
	strb	r3, [sp, #39]
.L120:
	.loc 1 1214 6
	ldrsb	r3, [sp, #39]
	cmp	r3, #0
	bne	.L117
	.loc 1 1215 11
	add	r1, sp, #8
	ldr	r3, [sp]
	movs	r2, #15
	movs	r0, #29
	bl	bme680_get_regs
	mov	r3, r0
	strb	r3, [sp, #39]
	.loc 1 1218 23
	ldrb	r3, [sp, #8]	@ zero_extendqisi2
	.loc 1 1218 27
	bic	r3, r3, #127
	uxtb	r2, r3
	.loc 1 1218 17
	ldr	r3, [sp, #4]
	strb	r2, [r3]
	.loc 1 1219 26
	ldrb	r3, [sp, #8]	@ zero_extendqisi2
	.loc 1 1219 30
	and	r3, r3, #15
	uxtb	r2, r3
	.loc 1 1219 20
	ldr	r3, [sp, #4]
	strb	r2, [r3, #1]
	.loc 1 1220 27
	ldrb	r2, [sp, #9]	@ zero_extendqisi2
	.loc 1 1220 21
	ldr	r3, [sp, #4]
	strb	r2, [r3, #2]
	.loc 1 1223 43
	ldrb	r3, [sp, #10]	@ zero_extendqisi2
	.loc 1 1223 47
	lsls	r2, r3, #12
	.loc 1 1223 73
	ldrb	r3, [sp, #11]	@ zero_extendqisi2
	.loc 1 1223 77
	lsls	r3, r3, #4
	.loc 1 1223 55
	orrs	r3, r3, r2
	.loc 1 1224 23
	ldrb	r2, [sp, #12]	@ zero_extendqisi2
	.loc 1 1224 27
	lsrs	r2, r2, #4
	uxtb	r2, r2
	.loc 1 1223 13
	orrs	r3, r3, r2
	str	r3, [sp, #32]
	.loc 1 1225 43
	ldrb	r3, [sp, #13]	@ zero_extendqisi2
	.loc 1 1225 47
	lsls	r2, r3, #12
	.loc 1 1225 73
	ldrb	r3, [sp, #14]	@ zero_extendqisi2
	.loc 1 1225 77
	lsls	r3, r3, #4
	.loc 1 1225 55
	orrs	r3, r3, r2
	.loc 1 1226 23
	ldrb	r2, [sp, #15]	@ zero_extendqisi2
	.loc 1 1226 27
	lsrs	r2, r2, #4
	uxtb	r2, r2
	.loc 1 1225 13
	orrs	r3, r3, r2
	str	r3, [sp, #28]
	.loc 1 1227 42
	ldrb	r3, [sp, #16]	@ zero_extendqisi2
	uxth	r3, r3
	.loc 1 1227 46
	lsls	r3, r3, #8
	uxth	r2, r3
	.loc 1 1227 70
	ldrb	r3, [sp, #17]	@ zero_extendqisi2
	uxth	r3, r3
	.loc 1 1227 12
	orrs	r3, r3, r2
	strh	r3, [sp, #26]	@ movhi
	.loc 1 1228 45
	ldrb	r3, [sp, #21]	@ zero_extendqisi2
	uxth	r3, r3
	.loc 1 1228 50
	lsls	r3, r3, #2
	uxth	r2, r3
	.loc 1 1228 73
	ldrb	r3, [sp, #22]	@ zero_extendqisi2
	.loc 1 1228 18
	lsrs	r3, r3, #6
	uxtb	r3, r3
	uxth	r3, r3
	.loc 1 1228 16
	orrs	r3, r3, r2
	strh	r3, [sp, #24]	@ movhi
	.loc 1 1229 20
	ldrb	r3, [sp, #22]	@ zero_extendqisi2
	.loc 1 1229 14
	and	r3, r3, #15
	strb	r3, [sp, #23]
	.loc 1 1231 17
	ldr	r3, [sp, #4]
	ldrb	r2, [r3]	@ zero_extendqisi2
	.loc 1 1231 24
	ldrb	r3, [sp, #22]	@ zero_extendqisi2
	.loc 1 1231 29
	and	r3, r3, #32
	uxtb	r3, r3
	.loc 1 1231 17
	orrs	r3, r3, r2
	uxtb	r2, r3
	ldr	r3, [sp, #4]
	strb	r2, [r3]
	.loc 1 1232 17
	ldr	r3, [sp, #4]
	ldrb	r2, [r3]	@ zero_extendqisi2
	.loc 1 1232 24
	ldrb	r3, [sp, #22]	@ zero_extendqisi2
	.loc 1 1232 29
	and	r3, r3, #16
	uxtb	r3, r3
	.loc 1 1232 17
	orrs	r3, r3, r2
	uxtb	r2, r3
	ldr	r3, [sp, #4]
	strb	r2, [r3]
	.loc 1 1234 12
	ldr	r3, [sp, #4]
	ldrb	r3, [r3]	@ zero_extendqisi2
	.loc 1 1234 8
	sxtb	r3, r3
	.loc 1 1234 7
	cmp	r3, #0
	bge	.L118
	.loc 1 1235 25
	ldr	r1, [sp]
	ldr	r0, [sp, #28]
	bl	calc_temperature
	mov	r3, r0
	mov	r2, r3
	.loc 1 1235 23
	ldr	r3, [sp, #4]
	strh	r2, [r3, #4]	@ movhi
	.loc 1 1236 22
	ldr	r1, [sp]
	ldr	r0, [sp, #32]
	bl	calc_pressure
	mov	r2, r0
	.loc 1 1236 20
	ldr	r3, [sp, #4]
	str	r2, [r3, #8]
	.loc 1 1237 22
	ldrh	r3, [sp, #26]
	ldr	r1, [sp]
	mov	r0, r3
	bl	calc_humidity
	mov	r2, r0
	.loc 1 1237 20
	ldr	r3, [sp, #4]
	str	r2, [r3, #12]
	.loc 1 1238 28
	ldrb	r1, [sp, #23]	@ zero_extendqisi2
	ldrh	r3, [sp, #24]
	ldr	r2, [sp]
	mov	r0, r3
	bl	calc_gas_resistance
	mov	r2, r0
	.loc 1 1238 26
	ldr	r3, [sp, #4]
	str	r2, [r3, #16]
	.loc 1 1239 5
	b	.L119
.L118:
	.loc 1 1242 7
	ldr	r3, [sp]
	ldr	r3, [r3, #80]
	.loc 1 1242 4
	movs	r0, #10
	blx	r3
.LVL5:
.L117:
	.loc 1 1244 8
	ldrb	r3, [sp, #38]	@ zero_extendqisi2
	subs	r3, r3, #1
	strb	r3, [sp, #38]
	.loc 1 1245 2
	ldrb	r3, [sp, #38]	@ zero_extendqisi2
	cmp	r3, #0
	bne	.L120
.L119:
	.loc 1 1247 5
	ldrb	r3, [sp, #38]	@ zero_extendqisi2
	cmp	r3, #0
	bne	.L121
	.loc 1 1248 8
	movs	r3, #2
	strb	r3, [sp, #39]
.L121:
	.loc 1 1250 9
	ldrsb	r3, [sp, #39]
	.loc 1 1251 1
	mov	r0, r3
	add	sp, sp, #44
.LCFI57:
	@ sp needed
	ldr	pc, [sp], #4
.LFE20:
	.size	read_field_data, .-read_field_data
	.section	.text.set_mem_page,"ax",%progbits
	.align	1
	.syntax unified
	.thumb
	.thumb_func
	.fpu fpv4-sp-d16
	.type	set_mem_page, %function
set_mem_page:
.LFB21:
	.loc 1 1257 1
	@ args = 0, pretend = 0, frame = 16
	@ frame_needed = 0, uses_anonymous_args = 0
	push	{r4, lr}
.LCFI58:
	sub	sp, sp, #16
.LCFI59:
	mov	r3, r0
	str	r1, [sp]
	strb	r3, [sp, #7]
	.loc 1 1263 9
	ldr	r0, [sp]
	bl	null_ptr_check
	mov	r3, r0
	strb	r3, [sp, #15]
	.loc 1 1264 5
	ldrsb	r3, [sp, #15]
	cmp	r3, #0
	bne	.L124
	.loc 1 1265 16
	ldrsb	r3, [sp, #7]
	.loc 1 1265 6
	cmp	r3, #0
	bge	.L125
	.loc 1 1266 13
	movs	r3, #0
	strb	r3, [sp, #14]
	b	.L126
.L125:
	.loc 1 1268 13
	movs	r3, #16
	strb	r3, [sp, #14]
.L126:
	.loc 1 1270 22
	ldr	r3, [sp]
	ldrb	r3, [r3, #3]	@ zero_extendqisi2
	.loc 1 1270 6
	ldrb	r2, [sp, #14]	@ zero_extendqisi2
	cmp	r2, r3
	beq	.L124
	.loc 1 1271 18
	ldr	r3, [sp]
	ldrb	r2, [sp, #14]
	strb	r2, [r3, #3]
	.loc 1 1273 23
	ldr	r3, [sp]
	ldr	r4, [r3, #72]
	.loc 1 1273 20
	ldr	r3, [sp]
	ldrb	r0, [r3, #1]	@ zero_extendqisi2
	add	r2, sp, #13
	movs	r3, #1
	movs	r1, #243
	blx	r4
.LVL6:
	mov	r3, r0
	mov	r2, r3
	.loc 1 1273 18
	ldr	r3, [sp]
	strb	r2, [r3, #84]
	.loc 1 1274 11
	ldr	r3, [sp]
	ldrsb	r3, [r3, #84]
	.loc 1 1274 7
	cmp	r3, #0
	beq	.L127
	.loc 1 1275 10
	movs	r3, #254
	strb	r3, [sp, #15]
.L127:
	.loc 1 1277 7
	ldrsb	r3, [sp, #15]
	cmp	r3, #0
	bne	.L124
	.loc 1 1278 15
	ldrb	r3, [sp, #13]	@ zero_extendqisi2
	bic	r3, r3, #16
	uxtb	r3, r3
	.loc 1 1278 9
	strb	r3, [sp, #13]
	.loc 1 1279 21
	ldr	r3, [sp]
	ldrb	r3, [r3, #3]	@ zero_extendqisi2
	.loc 1 1279 32
	and	r3, r3, #16
	uxtb	r2, r3
	.loc 1 1279 15
	ldrb	r3, [sp, #13]	@ zero_extendqisi2
	orrs	r3, r3, r2
	uxtb	r3, r3
	.loc 1 1279 9
	strb	r3, [sp, #13]
	.loc 1 1281 24
	ldr	r3, [sp]
	ldr	r4, [r3, #76]
	.loc 1 1281 21
	ldr	r3, [sp]
	ldrb	r0, [r3, #1]	@ zero_extendqisi2
	add	r2, sp, #13
	movs	r3, #1
	movs	r1, #115
	blx	r4
.LVL7:
	mov	r3, r0
	mov	r2, r3
	.loc 1 1281 19
	ldr	r3, [sp]
	strb	r2, [r3, #84]
	.loc 1 1283 12
	ldr	r3, [sp]
	ldrsb	r3, [r3, #84]
	.loc 1 1283 8
	cmp	r3, #0
	beq	.L124
	.loc 1 1284 11
	movs	r3, #254
	strb	r3, [sp, #15]
.L124:
	.loc 1 1289 9
	ldrsb	r3, [sp, #15]
	.loc 1 1290 1
	mov	r0, r3
	add	sp, sp, #16
.LCFI60:
	@ sp needed
	pop	{r4, pc}
.LFE21:
	.size	set_mem_page, .-set_mem_page
	.section	.text.get_mem_page,"ax",%progbits
	.align	1
	.syntax unified
	.thumb
	.thumb_func
	.fpu fpv4-sp-d16
	.type	get_mem_page, %function
get_mem_page:
.LFB22:
	.loc 1 1296 1
	@ args = 0, pretend = 0, frame = 16
	@ frame_needed = 0, uses_anonymous_args = 0
	push	{r4, lr}
.LCFI61:
	sub	sp, sp, #16
.LCFI62:
	str	r0, [sp, #4]
	.loc 1 1301 9
	ldr	r0, [sp, #4]
	bl	null_ptr_check
	mov	r3, r0
	strb	r3, [sp, #15]
	.loc 1 1302 5
	ldrsb	r3, [sp, #15]
	cmp	r3, #0
	bne	.L130
	.loc 1 1303 22
	ldr	r3, [sp, #4]
	ldr	r4, [r3, #72]
	.loc 1 1303 19
	ldr	r3, [sp, #4]
	ldrb	r0, [r3, #1]	@ zero_extendqisi2
	add	r2, sp, #14
	movs	r3, #1
	movs	r1, #243
	blx	r4
.LVL8:
	mov	r3, r0
	mov	r2, r3
	.loc 1 1303 17
	ldr	r3, [sp, #4]
	strb	r2, [r3, #84]
	.loc 1 1304 10
	ldr	r3, [sp, #4]
	ldrsb	r3, [r3, #84]
	.loc 1 1304 6
	cmp	r3, #0
	beq	.L131
	.loc 1 1305 9
	movs	r3, #254
	strb	r3, [sp, #15]
	b	.L130
.L131:
	.loc 1 1307 24
	ldrb	r3, [sp, #14]	@ zero_extendqisi2
	and	r3, r3, #16
	uxtb	r2, r3
	.loc 1 1307 18
	ldr	r3, [sp, #4]
	strb	r2, [r3, #3]
.L130:
	.loc 1 1310 9
	ldrsb	r3, [sp, #15]
	.loc 1 1311 1
	mov	r0, r3
	add	sp, sp, #16
.LCFI63:
	@ sp needed
	pop	{r4, pc}
.LFE22:
	.size	get_mem_page, .-get_mem_page
	.section	.text.boundary_check,"ax",%progbits
	.align	1
	.syntax unified
	.thumb
	.thumb_func
	.fpu fpv4-sp-d16
	.type	boundary_check, %function
boundary_check:
.LFB23:
	.loc 1 1318 1
	@ args = 0, pretend = 0, frame = 24
	@ frame_needed = 0, uses_anonymous_args = 0
	@ link register save eliminated.
	sub	sp, sp, #24
.LCFI64:
	str	r0, [sp, #12]
	str	r3, [sp, #4]
	mov	r3, r1
	strb	r3, [sp, #11]
	mov	r3, r2
	strb	r3, [sp, #10]
	.loc 1 1319 9
	movs	r3, #0
	strb	r3, [sp, #23]
	.loc 1 1321 5
	ldr	r3, [sp, #12]
	cmp	r3, #0
	beq	.L134
	.loc 1 1323 7
	ldr	r3, [sp, #12]
	ldrb	r3, [r3]	@ zero_extendqisi2
	.loc 1 1323 6
	ldrb	r2, [sp, #11]	@ zero_extendqisi2
	cmp	r2, r3
	bls	.L135
	.loc 1 1325 11
	ldr	r3, [sp, #12]
	ldrb	r2, [sp, #11]
	strb	r2, [r3]
	.loc 1 1326 18
	ldr	r3, [sp, #4]
	ldrb	r3, [r3, #70]	@ zero_extendqisi2
	orr	r3, r3, #1
	uxtb	r2, r3
	ldr	r3, [sp, #4]
	strb	r2, [r3, #70]
.L135:
	.loc 1 1329 7
	ldr	r3, [sp, #12]
	ldrb	r3, [r3]	@ zero_extendqisi2
	.loc 1 1329 6
	ldrb	r2, [sp, #10]	@ zero_extendqisi2
	cmp	r2, r3
	bcs	.L136
	.loc 1 1331 11
	ldr	r3, [sp, #12]
	ldrb	r2, [sp, #10]
	strb	r2, [r3]
	.loc 1 1332 18
	ldr	r3, [sp, #4]
	ldrb	r3, [r3, #70]	@ zero_extendqisi2
	orr	r3, r3, #2
	uxtb	r2, r3
	ldr	r3, [sp, #4]
	strb	r2, [r3, #70]
	b	.L136
.L134:
	.loc 1 1335 8
	movs	r3, #255
	strb	r3, [sp, #23]
.L136:
	.loc 1 1338 9
	ldrsb	r3, [sp, #23]
	.loc 1 1339 1
	mov	r0, r3
	add	sp, sp, #24
.LCFI65:
	@ sp needed
	bx	lr
.LFE23:
	.size	boundary_check, .-boundary_check
	.section	.text.null_ptr_check,"ax",%progbits
	.align	1
	.syntax unified
	.thumb
	.thumb_func
	.fpu fpv4-sp-d16
	.type	null_ptr_check, %function
null_ptr_check:
.LFB24:
	.loc 1 1346 1
	@ args = 0, pretend = 0, frame = 16
	@ frame_needed = 0, uses_anonymous_args = 0
	@ link register save eliminated.
	sub	sp, sp, #16
.LCFI66:
	str	r0, [sp, #4]
	.loc 1 1349 5
	ldr	r3, [sp, #4]
	cmp	r3, #0
	beq	.L139
	.loc 1 1349 27 discriminator 1
	ldr	r3, [sp, #4]
	ldr	r3, [r3, #72]
	.loc 1 1349 20 discriminator 1
	cmp	r3, #0
	beq	.L139
	.loc 1 1349 50 discriminator 2
	ldr	r3, [sp, #4]
	ldr	r3, [r3, #76]
	.loc 1 1349 43 discriminator 2
	cmp	r3, #0
	beq	.L139
	.loc 1 1349 74 discriminator 3
	ldr	r3, [sp, #4]
	ldr	r3, [r3, #80]
	.loc 1 1349 67 discriminator 3
	cmp	r3, #0
	bne	.L140
.L139:
	.loc 1 1351 8
	movs	r3, #255
	strb	r3, [sp, #15]
	b	.L141
.L140:
	.loc 1 1354 8
	movs	r3, #0
	strb	r3, [sp, #15]
.L141:
	.loc 1 1357 9
	ldrsb	r3, [sp, #15]
	.loc 1 1358 1
	mov	r0, r3
	add	sp, sp, #16
.LCFI67:
	@ sp needed
	bx	lr
.LFE24:
	.size	null_ptr_check, .-null_ptr_check
	.section	.debug_frame,"",%progbits
.Lframe0:
	.4byte	.LECIE0-.LSCIE0
.LSCIE0:
	.4byte	0xffffffff
	.byte	0x3
	.ascii	"\000"
	.uleb128 0x1
	.sleb128 -4
	.uleb128 0xe
	.byte	0xc
	.uleb128 0xd
	.uleb128 0
	.align	2
.LECIE0:
.LSFDE0:
	.4byte	.LEFDE0-.LASFDE0
.LASFDE0:
	.4byte	.Lframe0
	.4byte	.LFB0
	.4byte	.LFE0-.LFB0
	.byte	0x4
	.4byte	.LCFI0-.LFB0
	.byte	0xe
	.uleb128 0x4
	.byte	0x8e
	.uleb128 0x1
	.byte	0x4
	.4byte	.LCFI1-.LCFI0
	.byte	0xe
	.uleb128 0x18
	.byte	0x4
	.4byte	.LCFI2-.LCFI1
	.byte	0xe
	.uleb128 0x4
	.align	2
.LEFDE0:
.LSFDE2:
	.4byte	.LEFDE2-.LASFDE2
.LASFDE2:
	.4byte	.Lframe0
	.4byte	.LFB1
	.4byte	.LFE1-.LFB1
	.byte	0x4
	.4byte	.LCFI3-.LFB1
	.byte	0xe
	.uleb128 0x8
	.byte	0x84
	.uleb128 0x2
	.byte	0x8e
	.uleb128 0x1
	.byte	0x4
	.4byte	.LCFI4-.LCFI3
	.byte	0xe
	.uleb128 0x20
	.byte	0x4
	.4byte	.LCFI5-.LCFI4
	.byte	0xe
	.uleb128 0x8
	.align	2
.LEFDE2:
.LSFDE4:
	.4byte	.LEFDE4-.LASFDE4
.LASFDE4:
	.4byte	.Lframe0
	.4byte	.LFB2
	.4byte	.LFE2-.LFB2
	.byte	0x4
	.4byte	.LCFI6-.LFB2
	.byte	0xe
	.uleb128 0xc
	.byte	0x84
	.uleb128 0x3
	.byte	0x85
	.uleb128 0x2
	.byte	0x8e
	.uleb128 0x1
	.byte	0x4
	.4byte	.LCFI7-.LCFI6
	.byte	0xe
	.uleb128 0x50
	.byte	0x4
	.4byte	.LCFI8-.LCFI7
	.byte	0xe
	.uleb128 0xc
	.align	2
.LEFDE4:
.LSFDE6:
	.4byte	.LEFDE6-.LASFDE6
.LASFDE6:
	.4byte	.Lframe0
	.4byte	.LFB3
	.4byte	.LFE3-.LFB3
	.byte	0x4
	.4byte	.LCFI9-.LFB3
	.byte	0xe
	.uleb128 0x4
	.byte	0x8e
	.uleb128 0x1
	.byte	0x4
	.4byte	.LCFI10-.LCFI9
	.byte	0xe
	.uleb128 0x18
	.byte	0x4
	.4byte	.LCFI11-.LCFI10
	.byte	0xe
	.uleb128 0x4
	.align	2
.LEFDE6:
.LSFDE8:
	.4byte	.LEFDE8-.LASFDE8
.LASFDE8:
	.4byte	.Lframe0
	.4byte	.LFB4
	.4byte	.LFE4-.LFB4
	.byte	0x4
	.4byte	.LCFI12-.LFB4
	.byte	0xe
	.uleb128 0x4
	.byte	0x8e
	.uleb128 0x1
	.byte	0x4
	.4byte	.LCFI13-.LCFI12
	.byte	0xe
	.uleb128 0x28
	.byte	0x4
	.4byte	.LCFI14-.LCFI13
	.byte	0xe
	.uleb128 0x4
	.align	2
.LEFDE8:
.LSFDE10:
	.4byte	.LEFDE10-.LASFDE10
.LASFDE10:
	.4byte	.Lframe0
	.4byte	.LFB5
	.4byte	.LFE5-.LFB5
	.byte	0x4
	.4byte	.LCFI15-.LFB5
	.byte	0xe
	.uleb128 0x4
	.byte	0x8e
	.uleb128 0x1
	.byte	0x4
	.4byte	.LCFI16-.LCFI15
	.byte	0xe
	.uleb128 0x18
	.byte	0x4
	.4byte	.LCFI17-.LCFI16
	.byte	0xe
	.uleb128 0x4
	.align	2
.LEFDE10:
.LSFDE12:
	.4byte	.LEFDE12-.LASFDE12
.LASFDE12:
	.4byte	.Lframe0
	.4byte	.LFB6
	.4byte	.LFE6-.LFB6
	.byte	0x4
	.4byte	.LCFI18-.LFB6
	.byte	0xe
	.uleb128 0x4
	.byte	0x8e
	.uleb128 0x1
	.byte	0x4
	.4byte	.LCFI19-.LCFI18
	.byte	0xe
	.uleb128 0x18
	.byte	0x4
	.4byte	.LCFI20-.LCFI19
	.byte	0xe
	.uleb128 0x4
	.align	2
.LEFDE12:
.LSFDE14:
	.4byte	.LEFDE14-.LASFDE14
.LASFDE14:
	.4byte	.Lframe0
	.4byte	.LFB7
	.4byte	.LFE7-.LFB7
	.byte	0x4
	.4byte	.LCFI21-.LFB7
	.byte	0xe
	.uleb128 0x4
	.byte	0x8e
	.uleb128 0x1
	.byte	0x4
	.4byte	.LCFI22-.LCFI21
	.byte	0xe
	.uleb128 0x18
	.byte	0x4
	.4byte	.LCFI23-.LCFI22
	.byte	0xe
	.uleb128 0x4
	.align	2
.LEFDE14:
.LSFDE16:
	.4byte	.LEFDE16-.LASFDE16
.LASFDE16:
	.4byte	.Lframe0
	.4byte	.LFB8
	.4byte	.LFE8-.LFB8
	.byte	0x4
	.4byte	.LCFI24-.LFB8
	.byte	0xe
	.uleb128 0x18
	.byte	0x4
	.4byte	.LCFI25-.LCFI24
	.byte	0xe
	.uleb128 0
	.align	2
.LEFDE16:
.LSFDE18:
	.4byte	.LEFDE18-.LASFDE18
.LASFDE18:
	.4byte	.Lframe0
	.4byte	.LFB9
	.4byte	.LFE9-.LFB9
	.byte	0x4
	.4byte	.LCFI26-.LFB9
	.byte	0xe
	.uleb128 0x18
	.byte	0x4
	.4byte	.LCFI27-.LCFI26
	.byte	0xe
	.uleb128 0
	.align	2
.LEFDE18:
.LSFDE20:
	.4byte	.LEFDE20-.LASFDE20
.LASFDE20:
	.4byte	.Lframe0
	.4byte	.LFB10
	.4byte	.LFE10-.LFB10
	.byte	0x4
	.4byte	.LCFI28-.LFB10
	.byte	0xe
	.uleb128 0x4
	.byte	0x8e
	.uleb128 0x1
	.byte	0x4
	.4byte	.LCFI29-.LCFI28
	.byte	0xe
	.uleb128 0x18
	.byte	0x4
	.4byte	.LCFI30-.LCFI29
	.byte	0xe
	.uleb128 0x4
	.align	2
.LEFDE20:
.LSFDE22:
	.4byte	.LEFDE22-.LASFDE22
.LASFDE22:
	.4byte	.Lframe0
	.4byte	.LFB11
	.4byte	.LFE11-.LFB11
	.byte	0x4
	.4byte	.LCFI31-.LFB11
	.byte	0xe
	.uleb128 0x4
	.byte	0x8e
	.uleb128 0x1
	.byte	0x4
	.4byte	.LCFI32-.LCFI31
	.byte	0xe
	.uleb128 0x40
	.byte	0x4
	.4byte	.LCFI33-.LCFI32
	.byte	0xe
	.uleb128 0x4
	.align	2
.LEFDE22:
.LSFDE24:
	.4byte	.LEFDE24-.LASFDE24
.LASFDE24:
	.4byte	.Lframe0
	.4byte	.LFB12
	.4byte	.LFE12-.LFB12
	.byte	0x4
	.4byte	.LCFI34-.LFB12
	.byte	0xe
	.uleb128 0x4
	.byte	0x8e
	.uleb128 0x1
	.byte	0x4
	.4byte	.LCFI35-.LCFI34
	.byte	0xe
	.uleb128 0x18
	.byte	0x4
	.4byte	.LCFI36-.LCFI35
	.byte	0xe
	.uleb128 0x4
	.align	2
.LEFDE24:
.LSFDE26:
	.4byte	.LEFDE26-.LASFDE26
.LASFDE26:
	.4byte	.Lframe0
	.4byte	.LFB13
	.4byte	.LFE13-.LFB13
	.byte	0x4
	.4byte	.LCFI37-.LFB13
	.byte	0xe
	.uleb128 0x4
	.byte	0x8e
	.uleb128 0x1
	.byte	0x4
	.4byte	.LCFI38-.LCFI37
	.byte	0xe
	.uleb128 0x18
	.byte	0x4
	.4byte	.LCFI39-.LCFI38
	.byte	0xe
	.uleb128 0x4
	.align	2
.LEFDE26:
.LSFDE28:
	.4byte	.LEFDE28-.LASFDE28
.LASFDE28:
	.4byte	.Lframe0
	.4byte	.LFB14
	.4byte	.LFE14-.LFB14
	.byte	0x4
	.4byte	.LCFI40-.LFB14
	.byte	0xe
	.uleb128 0x8
	.byte	0x84
	.uleb128 0x2
	.byte	0x85
	.uleb128 0x1
	.byte	0x4
	.4byte	.LCFI41-.LCFI40
	.byte	0xe
	.uleb128 0x30
	.byte	0x4
	.4byte	.LCFI42-.LCFI41
	.byte	0xe
	.uleb128 0x8
	.byte	0x4
	.4byte	.LCFI43-.LCFI42
	.byte	0xc5
	.byte	0xc4
	.byte	0xe
	.uleb128 0
	.align	2
.LEFDE28:
.LSFDE30:
	.4byte	.LEFDE30-.LASFDE30
.LASFDE30:
	.4byte	.Lframe0
	.4byte	.LFB15
	.4byte	.LFE15-.LFB15
	.byte	0x4
	.4byte	.LCFI44-.LFB15
	.byte	0xe
	.uleb128 0x18
	.byte	0x4
	.4byte	.LCFI45-.LCFI44
	.byte	0xe
	.uleb128 0
	.align	2
.LEFDE30:
.LSFDE32:
	.4byte	.LEFDE32-.LASFDE32
.LASFDE32:
	.4byte	.Lframe0
	.4byte	.LFB16
	.4byte	.LFE16-.LFB16
	.byte	0x4
	.4byte	.LCFI46-.LFB16
	.byte	0xe
	.uleb128 0x28
	.byte	0x4
	.4byte	.LCFI47-.LCFI46
	.byte	0xe
	.uleb128 0
	.align	2
.LEFDE32:
.LSFDE34:
	.4byte	.LEFDE34-.LASFDE34
.LASFDE34:
	.4byte	.Lframe0
	.4byte	.LFB17
	.4byte	.LFE17-.LFB17
	.byte	0x4
	.4byte	.LCFI48-.LFB17
	.byte	0xe
	.uleb128 0x24
	.byte	0x84
	.uleb128 0x9
	.byte	0x85
	.uleb128 0x8
	.byte	0x86
	.uleb128 0x7
	.byte	0x87
	.uleb128 0x6
	.byte	0x88
	.uleb128 0x5
	.byte	0x89
	.uleb128 0x4
	.byte	0x8a
	.uleb128 0x3
	.byte	0x8b
	.uleb128 0x2
	.byte	0x8e
	.uleb128 0x1
	.byte	0x4
	.4byte	.LCFI49-.LCFI48
	.byte	0xe
	.uleb128 0xe0
	.byte	0x4
	.4byte	.LCFI50-.LCFI49
	.byte	0xe
	.uleb128 0x24
	.align	2
.LEFDE34:
.LSFDE36:
	.4byte	.LEFDE36-.LASFDE36
.LASFDE36:
	.4byte	.Lframe0
	.4byte	.LFB18
	.4byte	.LFE18-.LFB18
	.byte	0x4
	.4byte	.LCFI51-.LFB18
	.byte	0xe
	.uleb128 0x28
	.byte	0x4
	.4byte	.LCFI52-.LCFI51
	.byte	0xe
	.uleb128 0
	.align	2
.LEFDE36:
.LSFDE38:
	.4byte	.LEFDE38-.LASFDE38
.LASFDE38:
	.4byte	.Lframe0
	.4byte	.LFB19
	.4byte	.LFE19-.LFB19
	.byte	0x4
	.4byte	.LCFI53-.LFB19
	.byte	0xe
	.uleb128 0x10
	.byte	0x4
	.4byte	.LCFI54-.LCFI53
	.byte	0xe
	.uleb128 0
	.align	2
.LEFDE38:
.LSFDE40:
	.4byte	.LEFDE40-.LASFDE40
.LASFDE40:
	.4byte	.Lframe0
	.4byte	.LFB20
	.4byte	.LFE20-.LFB20
	.byte	0x4
	.4byte	.LCFI55-.LFB20
	.byte	0xe
	.uleb128 0x4
	.byte	0x8e
	.uleb128 0x1
	.byte	0x4
	.4byte	.LCFI56-.LCFI55
	.byte	0xe
	.uleb128 0x30
	.byte	0x4
	.4byte	.LCFI57-.LCFI56
	.byte	0xe
	.uleb128 0x4
	.align	2
.LEFDE40:
.LSFDE42:
	.4byte	.LEFDE42-.LASFDE42
.LASFDE42:
	.4byte	.Lframe0
	.4byte	.LFB21
	.4byte	.LFE21-.LFB21
	.byte	0x4
	.4byte	.LCFI58-.LFB21
	.byte	0xe
	.uleb128 0x8
	.byte	0x84
	.uleb128 0x2
	.byte	0x8e
	.uleb128 0x1
	.byte	0x4
	.4byte	.LCFI59-.LCFI58
	.byte	0xe
	.uleb128 0x18
	.byte	0x4
	.4byte	.LCFI60-.LCFI59
	.byte	0xe
	.uleb128 0x8
	.align	2
.LEFDE42:
.LSFDE44:
	.4byte	.LEFDE44-.LASFDE44
.LASFDE44:
	.4byte	.Lframe0
	.4byte	.LFB22
	.4byte	.LFE22-.LFB22
	.byte	0x4
	.4byte	.LCFI61-.LFB22
	.byte	0xe
	.uleb128 0x8
	.byte	0x84
	.uleb128 0x2
	.byte	0x8e
	.uleb128 0x1
	.byte	0x4
	.4byte	.LCFI62-.LCFI61
	.byte	0xe
	.uleb128 0x18
	.byte	0x4
	.4byte	.LCFI63-.LCFI62
	.byte	0xe
	.uleb128 0x8
	.align	2
.LEFDE44:
.LSFDE46:
	.4byte	.LEFDE46-.LASFDE46
.LASFDE46:
	.4byte	.Lframe0
	.4byte	.LFB23
	.4byte	.LFE23-.LFB23
	.byte	0x4
	.4byte	.LCFI64-.LFB23
	.byte	0xe
	.uleb128 0x18
	.byte	0x4
	.4byte	.LCFI65-.LCFI64
	.byte	0xe
	.uleb128 0
	.align	2
.LEFDE46:
.LSFDE48:
	.4byte	.LEFDE48-.LASFDE48
.LASFDE48:
	.4byte	.Lframe0
	.4byte	.LFB24
	.4byte	.LFE24-.LFB24
	.byte	0x4
	.4byte	.LCFI66-.LFB24
	.byte	0xe
	.uleb128 0x10
	.byte	0x4
	.4byte	.LCFI67-.LCFI66
	.byte	0xe
	.uleb128 0
	.align	2
.LEFDE48:
	.text
.Letext0:
	.file 2 "C:/Program Files/SEGGER/SEGGER Embedded Studio for ARM 5.32a/include/stdint.h"
	.file 3 "C:/Program Files/SEGGER/SEGGER Embedded Studio for ARM 5.32a/include/__crossworks.h"
	.file 4 "C:\\nordic\\nRF5_SDK_17.0.2_d674dde\\own_projects\\eigene\\twi_sensor2\\lib\\sensor\\snow_bme680\\bme680_defs.h"